
main.elf:     file format elf32-littleriscv


Disassembly of section .text:

00000000 <_isr_handler>:
       0:	0080006f          	j	8 <_isr_routine>
       4:	1440006f          	j	148 <_start>

00000008 <_isr_routine>:
       8:	f8010113          	addi	sp,sp,-128
       c:	00112023          	sw	ra,0(sp)
      10:	00312423          	sw	gp,8(sp)
      14:	00412623          	sw	tp,12(sp)
      18:	00512823          	sw	t0,16(sp)
      1c:	00612a23          	sw	t1,20(sp)
      20:	00712c23          	sw	t2,24(sp)
      24:	00812e23          	sw	s0,28(sp)
      28:	02912023          	sw	s1,32(sp)
      2c:	02a12223          	sw	a0,36(sp)
      30:	02b12423          	sw	a1,40(sp)
      34:	02c12623          	sw	a2,44(sp)
      38:	02d12823          	sw	a3,48(sp)
      3c:	02e12a23          	sw	a4,52(sp)
      40:	02f12c23          	sw	a5,56(sp)
      44:	03012e23          	sw	a6,60(sp)
      48:	05112023          	sw	a7,64(sp)
      4c:	05212223          	sw	s2,68(sp)
      50:	05312423          	sw	s3,72(sp)
      54:	05412623          	sw	s4,76(sp)
      58:	05512823          	sw	s5,80(sp)
      5c:	05612a23          	sw	s6,84(sp)
      60:	05712c23          	sw	s7,88(sp)
      64:	05812e23          	sw	s8,92(sp)
      68:	07912023          	sw	s9,96(sp)
      6c:	07a12223          	sw	s10,100(sp)
      70:	07b12423          	sw	s11,104(sp)
      74:	07c12623          	sw	t3,108(sp)
      78:	07d12823          	sw	t4,112(sp)
      7c:	07e12a23          	sw	t5,116(sp)
      80:	07f12c23          	sw	t6,120(sp)
      84:	342022f3          	csrr	t0,mcause
      88:	80000337          	lui	t1,0x80000
      8c:	02536463          	bltu	t1,t0,b4 <external_irq>
      90:	00028833          	add	a6,t0,zero
      94:	00b00313          	li	t1,11
      98:	00628463          	beq	t0,t1,a0 <skip_init_args>
      9c:	34102573          	csrr	a0,mepc

000000a0 <skip_init_args>:
      a0:	7fd010ef          	jal	209c <handle_exception>
      a4:	341022f3          	csrr	t0,mepc
      a8:	00428293          	addi	t0,t0,4
      ac:	34129073          	csrw	mepc,t0
      b0:	0180006f          	j	c8 <restore>

000000b4 <external_irq>:
      b4:	800002b7          	lui	t0,0x80000
      b8:	fff28293          	addi	t0,t0,-1 # 7fffffff <_stack_end+0x7fefd90b>
      bc:	34202373          	csrr	t1,mcause
      c0:	0062f533          	and	a0,t0,t1
      c4:	100000ef          	jal	1c4 <handle_interrupt>

000000c8 <restore>:
      c8:	00012083          	lw	ra,0(sp)
      cc:	00812183          	lw	gp,8(sp)
      d0:	00c12203          	lw	tp,12(sp)
      d4:	01012283          	lw	t0,16(sp)
      d8:	01412303          	lw	t1,20(sp)
      dc:	01812383          	lw	t2,24(sp)
      e0:	01c12403          	lw	s0,28(sp)
      e4:	02012483          	lw	s1,32(sp)
      e8:	02412503          	lw	a0,36(sp)
      ec:	02812583          	lw	a1,40(sp)
      f0:	02c12603          	lw	a2,44(sp)
      f4:	03012683          	lw	a3,48(sp)
      f8:	03412703          	lw	a4,52(sp)
      fc:	03812783          	lw	a5,56(sp)
     100:	03c12803          	lw	a6,60(sp)
     104:	04012883          	lw	a7,64(sp)
     108:	04412903          	lw	s2,68(sp)
     10c:	04812983          	lw	s3,72(sp)
     110:	04c12a03          	lw	s4,76(sp)
     114:	05012a83          	lw	s5,80(sp)
     118:	05412b03          	lw	s6,84(sp)
     11c:	05812b83          	lw	s7,88(sp)
     120:	05c12c03          	lw	s8,92(sp)
     124:	06012c83          	lw	s9,96(sp)
     128:	06412d03          	lw	s10,100(sp)
     12c:	06812d83          	lw	s11,104(sp)
     130:	06c12e03          	lw	t3,108(sp)
     134:	07012e83          	lw	t4,112(sp)
     138:	07412f03          	lw	t5,116(sp)
     13c:	07812f83          	lw	t6,120(sp)
     140:	08010113          	addi	sp,sp,128
     144:	30200073          	mret

00000148 <_start>:
     148:	30401073          	csrw	mie,zero
     14c:	00102117          	auipc	sp,0x102
     150:	5a810113          	addi	sp,sp,1448 # 1026f4 <_stack_end>
     154:	00003197          	auipc	gp,0x3
     158:	a8518193          	addi	gp,gp,-1403 # 2bd9 <__global_pointer>
     15c:	00002517          	auipc	a0,0x2
     160:	1c850513          	addi	a0,a0,456 # 2324 <welcome_msg>
     164:	00400893          	li	a7,4
     168:	00000073          	ecall
     16c:	43d010ef          	jal	1da8 <main>

00000170 <loop>:
     170:	0000006f          	j	170 <loop>

00000174 <enable_interrupt>:
     174:	30486073          	csrsi	mie,16
     178:	3001e073          	csrsi	mstatus,3
     17c:	00008067          	ret

00000180 <timerinit>:
     180:	000027b7          	lui	a5,0x2
     184:	3f07a583          	lw	a1,1008(a5) # 23f0 <periodl>
     188:	00002737          	lui	a4,0x2
     18c:	3ec72683          	lw	a3,1004(a4) # 23ec <periodh>
     190:	000077b7          	lui	a5,0x7
     194:	00002737          	lui	a4,0x2
     198:	3e872703          	lw	a4,1000(a4) # 23e8 <status>
     19c:	53078793          	addi	a5,a5,1328 # 7530 <__global_pointer+0x4957>
     1a0:	00002637          	lui	a2,0x2
     1a4:	00f5a023          	sw	a5,0(a1)
     1a8:	3e462783          	lw	a5,996(a2) # 23e4 <control>
     1ac:	0006a023          	sw	zero,0(a3)
     1b0:	00100693          	li	a3,1
     1b4:	00d72023          	sw	a3,0(a4)
     1b8:	00700713          	li	a4,7
     1bc:	00e7a023          	sw	a4,0(a5)
     1c0:	fb5ff06f          	j	174 <enable_interrupt>

000001c4 <handle_interrupt>:
     1c4:	01000793          	li	a5,16
     1c8:	00f50463          	beq	a0,a5,1d0 <handle_interrupt+0xc>
     1cc:	00008067          	ret
     1d0:	00002737          	lui	a4,0x2
     1d4:	4fc72783          	lw	a5,1276(a4) # 24fc <framescountt>
     1d8:	000026b7          	lui	a3,0x2
     1dc:	3e86a683          	lw	a3,1000(a3) # 23e8 <status>
     1e0:	00178793          	addi	a5,a5,1
     1e4:	4ef72e23          	sw	a5,1276(a4)
     1e8:	0006a783          	lw	a5,0(a3)
     1ec:	00002637          	lui	a2,0x2
     1f0:	000025b7          	lui	a1,0x2
     1f4:	ffe7f793          	andi	a5,a5,-2
     1f8:	00f6a023          	sw	a5,0(a3)
     1fc:	3e062783          	lw	a5,992(a2) # 23e0 <basetick>
     200:	4f85a683          	lw	a3,1272(a1) # 24f8 <softdrop_active>
     204:	00068a63          	beqz	a3,218 <handle_interrupt+0x54>
     208:	000026b7          	lui	a3,0x2
     20c:	3e062783          	lw	a5,992(a2)
     210:	3dc6a683          	lw	a3,988(a3) # 23dc <softdrop_multiplier>
     214:	02d7c7b3          	div	a5,a5,a3
     218:	000026b7          	lui	a3,0x2
     21c:	5146a583          	lw	a1,1300(a3) # 2514 <lvl>
     220:	00002537          	lui	a0,0x2
     224:	50052603          	lw	a2,1280(a0) # 2500 <timeoutcount>
     228:	00259693          	slli	a3,a1,0x2
     22c:	00b686b3          	add	a3,a3,a1
     230:	40d787b3          	sub	a5,a5,a3
     234:	00f64c63          	blt	a2,a5,24c <handle_interrupt+0x88>
     238:	000027b7          	lui	a5,0x2
     23c:	00100693          	li	a3,1
     240:	50052023          	sw	zero,1280(a0)
     244:	50d7a423          	sw	a3,1288(a5) # 2508 <tick>
     248:	00000613          	li	a2,0
     24c:	4fc72683          	lw	a3,1276(a4)
     250:	01000793          	li	a5,16
     254:	f6f69ce3          	bne	a3,a5,1cc <handle_interrupt+0x8>
     258:	00160613          	addi	a2,a2,1
     25c:	000027b7          	lui	a5,0x2
     260:	00100693          	li	a3,1
     264:	50c52023          	sw	a2,1280(a0)
     268:	4e072e23          	sw	zero,1276(a4)
     26c:	50d7a223          	sw	a3,1284(a5) # 2504 <frames>
     270:	00008067          	ret

00000274 <output_init>:
     274:	08013737          	lui	a4,0x8013
     278:	c0070713          	addi	a4,a4,-1024 # 8012c00 <_stack_end+0x7f1050c>
     27c:	080007b7          	lui	a5,0x8000
     280:	00078023          	sb	zero,0(a5) # 8000000 <_stack_end+0x7efd90c>
     284:	00178793          	addi	a5,a5,1
     288:	fee79ce3          	bne	a5,a4,280 <output_init+0xc>
     28c:	08026737          	lui	a4,0x8026
     290:	80070713          	addi	a4,a4,-2048 # 8025800 <_stack_end+0x7f2310c>
     294:	00078023          	sb	zero,0(a5)
     298:	00178793          	addi	a5,a5,1
     29c:	fee79ce3          	bne	a5,a4,294 <output_init+0x20>
     2a0:	00008067          	ret

000002a4 <clear_backbuffer>:
     2a4:	000027b7          	lui	a5,0x2
     2a8:	3f47a783          	lw	a5,1012(a5) # 23f4 <back_buffer>
     2ac:	00013737          	lui	a4,0x13
     2b0:	c0070713          	addi	a4,a4,-1024 # 12c00 <__global_pointer+0x10027>
     2b4:	00e78733          	add	a4,a5,a4
     2b8:	00a78023          	sb	a0,0(a5)
     2bc:	00178793          	addi	a5,a5,1
     2c0:	fee79ce3          	bne	a5,a4,2b8 <clear_backbuffer+0x14>
     2c4:	00008067          	ret

000002c8 <draw_pixel>:
     2c8:	14053793          	sltiu	a5,a0,320
     2cc:	02078663          	beqz	a5,2f8 <draw_pixel+0x30>
     2d0:	0f05b793          	sltiu	a5,a1,240
     2d4:	02078263          	beqz	a5,2f8 <draw_pixel+0x30>
     2d8:	00259793          	slli	a5,a1,0x2
     2dc:	00002737          	lui	a4,0x2
     2e0:	3f472703          	lw	a4,1012(a4) # 23f4 <back_buffer>
     2e4:	00b787b3          	add	a5,a5,a1
     2e8:	00679793          	slli	a5,a5,0x6
     2ec:	00a787b3          	add	a5,a5,a0
     2f0:	00f70733          	add	a4,a4,a5
     2f4:	00c70023          	sb	a2,0(a4)
     2f8:	00008067          	ret

000002fc <draw_tile>:
     2fc:	04d05a63          	blez	a3,350 <draw_tile+0x54>
     300:	04c05863          	blez	a2,350 <draw_tile+0x54>
     304:	000027b7          	lui	a5,0x2
     308:	3f47a803          	lw	a6,1012(a5) # 23f4 <back_buffer>
     30c:	00b688b3          	add	a7,a3,a1
     310:	00259793          	slli	a5,a1,0x2
     314:	00b787b3          	add	a5,a5,a1
     318:	00a80533          	add	a0,a6,a0
     31c:	00289593          	slli	a1,a7,0x2
     320:	00a606b3          	add	a3,a2,a0
     324:	011585b3          	add	a1,a1,a7
     328:	00679613          	slli	a2,a5,0x6
     32c:	00c686b3          	add	a3,a3,a2
     330:	00659593          	slli	a1,a1,0x6
     334:	00c507b3          	add	a5,a0,a2
     338:	00e78023          	sb	a4,0(a5)
     33c:	00178793          	addi	a5,a5,1
     340:	fed79ce3          	bne	a5,a3,338 <draw_tile+0x3c>
     344:	14060613          	addi	a2,a2,320
     348:	14068693          	addi	a3,a3,320
     34c:	feb614e3          	bne	a2,a1,334 <draw_tile+0x38>
     350:	00008067          	ret

00000354 <swap_buffers_blocking>:
     354:	000026b7          	lui	a3,0x2
     358:	3f46a603          	lw	a2,1012(a3) # 23f4 <back_buffer>
     35c:	04000737          	lui	a4,0x4000
     360:	10c70713          	addi	a4,a4,268 # 400010c <_stack_end+0x3efda18>
     364:	fec72c23          	sw	a2,-8(a4)
     368:	fe072a23          	sw	zero,-12(a4)
     36c:	00072783          	lw	a5,0(a4)
     370:	0017f793          	andi	a5,a5,1
     374:	fe079ce3          	bnez	a5,36c <swap_buffers_blocking+0x18>
     378:	000027b7          	lui	a5,0x2
     37c:	3f87a703          	lw	a4,1016(a5) # 23f8 <front_buffer>
     380:	3ec7ac23          	sw	a2,1016(a5)
     384:	3ee6aa23          	sw	a4,1012(a3)
     388:	00008067          	ret

0000038c <get_vga_bpp_bytes>:
     38c:	040007b7          	lui	a5,0x4000
     390:	10c7a503          	lw	a0,268(a5) # 400010c <_stack_end+0x3efda18>
     394:	40455513          	srai	a0,a0,0x4
     398:	00f57513          	andi	a0,a0,15
     39c:	00008067          	ret

000003a0 <get_vga_width>:
     3a0:	040007b7          	lui	a5,0x4000
     3a4:	1087a503          	lw	a0,264(a5) # 4000108 <_stack_end+0x3efda14>
     3a8:	01051513          	slli	a0,a0,0x10
     3ac:	01055513          	srli	a0,a0,0x10
     3b0:	00008067          	ret

000003b4 <get_vga_height>:
     3b4:	040007b7          	lui	a5,0x4000
     3b8:	1087a503          	lw	a0,264(a5) # 4000108 <_stack_end+0x3efda14>
     3bc:	01055513          	srli	a0,a0,0x10
     3c0:	00008067          	ret

000003c4 <display_string>:
     3c4:	00400893          	li	a7,4
     3c8:	00000073          	ecall
     3cc:	00a00513          	li	a0,10
     3d0:	00b00893          	li	a7,11
     3d4:	00000073          	ecall
     3d8:	00008067          	ret

000003dc <timetemplate>:
     3dc:	00002517          	auipc	a0,0x2
     3e0:	fe050513          	addi	a0,a0,-32 # 23bc <timstr>
     3e4:	fe1ff0ef          	jal	3c4 <display_string>
     3e8:	3e800513          	li	a0,1000
     3ec:	0a4000ef          	jal	490 <delay>
     3f0:	00002517          	auipc	a0,0x2
     3f4:	fc850513          	addi	a0,a0,-56 # 23b8 <mytime>
     3f8:	020000ef          	jal	418 <tick>
     3fc:	00002517          	auipc	a0,0x2
     400:	fc050513          	addi	a0,a0,-64 # 23bc <timstr>
     404:	00002297          	auipc	t0,0x2
     408:	fb428293          	addi	t0,t0,-76 # 23b8 <mytime>
     40c:	0002a583          	lw	a1,0(t0)
     410:	0d0000ef          	jal	4e0 <time2string>
     414:	fc9ff06f          	j	3dc <timetemplate>

00000418 <tick>:
     418:	00052283          	lw	t0,0(a0)
     41c:	00128293          	addi	t0,t0,1
     420:	00f2f313          	andi	t1,t0,15
     424:	00a33393          	sltiu	t2,t1,10
     428:	06039063          	bnez	t2,488 <tiend>
     42c:	00628293          	addi	t0,t0,6
     430:	0f02f313          	andi	t1,t0,240
     434:	06033393          	sltiu	t2,t1,96
     438:	04039863          	bnez	t2,488 <tiend>
     43c:	0a028293          	addi	t0,t0,160
     440:	00f00e13          	li	t3,15
     444:	008e1e13          	slli	t3,t3,0x8
     448:	01c2f333          	and	t1,t0,t3
     44c:	00a00e13          	li	t3,10
     450:	008e1e13          	slli	t3,t3,0x8
     454:	01c323b3          	slt	t2,t1,t3
     458:	02039863          	bnez	t2,488 <tiend>
     45c:	60028293          	addi	t0,t0,1536
     460:	00f00e13          	li	t3,15
     464:	00ce1e13          	slli	t3,t3,0xc
     468:	01c2f333          	and	t1,t0,t3
     46c:	00600e13          	li	t3,6
     470:	00ce1e13          	slli	t3,t3,0xc
     474:	01c323b3          	slt	t2,t1,t3
     478:	00039863          	bnez	t2,488 <tiend>
     47c:	00a00e13          	li	t3,10
     480:	00ce1e13          	slli	t3,t3,0xc
     484:	01c282b3          	add	t0,t0,t3

00000488 <tiend>:
     488:	00552023          	sw	t0,0(a0)
     48c:	00008067          	ret

00000490 <delay>:
     490:	ffc10113          	addi	sp,sp,-4
     494:	00112023          	sw	ra,0(sp)
     498:	ffc10113          	addi	sp,sp,-4
     49c:	00a12023          	sw	a0,0(sp)

000004a0 <while>:
     4a0:	00152293          	slti	t0,a0,1
     4a4:	02029463          	bnez	t0,4cc <while_done>
     4a8:	fff50513          	addi	a0,a0,-1
     4ac:	00002337          	lui	t1,0x2
     4b0:	71030313          	addi	t1,t1,1808 # 2710 <pieces+0x1f8>
     4b4:	00000393          	li	t2,0
     4b8:	0040006f          	j	4bc <for>

000004bc <for>:
     4bc:	0063d663          	bge	t2,t1,4c8 <for_done>
     4c0:	00138393          	addi	t2,t2,1
     4c4:	ff9ff06f          	j	4bc <for>

000004c8 <for_done>:
     4c8:	fd9ff06f          	j	4a0 <while>

000004cc <while_done>:
     4cc:	00012503          	lw	a0,0(sp)
     4d0:	00410113          	addi	sp,sp,4
     4d4:	00012083          	lw	ra,0(sp)
     4d8:	00410113          	addi	sp,sp,4
     4dc:	00008067          	ret

000004e0 <time2string>:
     4e0:	ffc10113          	addi	sp,sp,-4
     4e4:	00112023          	sw	ra,0(sp)
     4e8:	ffc10113          	addi	sp,sp,-4
     4ec:	00a12023          	sw	a0,0(sp)
     4f0:	00c5d293          	srli	t0,a1,0xc
     4f4:	0085d313          	srli	t1,a1,0x8
     4f8:	0045d393          	srli	t2,a1,0x4
     4fc:	00f2f293          	andi	t0,t0,15
     500:	00f37313          	andi	t1,t1,15
     504:	00f3f393          	andi	t2,t2,15
     508:	00f5fe13          	andi	t3,a1,15
     50c:	00028513          	mv	a0,t0
     510:	05c000ef          	jal	56c <hex2asc>
     514:	00050293          	mv	t0,a0
     518:	00030513          	mv	a0,t1
     51c:	050000ef          	jal	56c <hex2asc>
     520:	00050313          	mv	t1,a0
     524:	00038513          	mv	a0,t2
     528:	044000ef          	jal	56c <hex2asc>
     52c:	00050393          	mv	t2,a0
     530:	000e0513          	mv	a0,t3
     534:	038000ef          	jal	56c <hex2asc>
     538:	00050e13          	mv	t3,a0
     53c:	00012503          	lw	a0,0(sp)
     540:	00410113          	addi	sp,sp,4
     544:	00550023          	sb	t0,0(a0)
     548:	006500a3          	sb	t1,1(a0)
     54c:	03a00e93          	li	t4,58
     550:	01d50123          	sb	t4,2(a0)
     554:	007501a3          	sb	t2,3(a0)
     558:	01c50223          	sb	t3,4(a0)
     55c:	000502a3          	sb	zero,5(a0)
     560:	00012083          	lw	ra,0(sp)
     564:	00410113          	addi	sp,sp,4
     568:	00008067          	ret

0000056c <hex2asc>:
     56c:	ffc10113          	addi	sp,sp,-4
     570:	00112023          	sw	ra,0(sp)
     574:	010000ef          	jal	584 <hexasc>
     578:	00012083          	lw	ra,0(sp)
     57c:	00410113          	addi	sp,sp,4
     580:	00008067          	ret

00000584 <hexasc>:
     584:	00f57513          	andi	a0,a0,15
     588:	03700613          	li	a2,55
     58c:	03000593          	li	a1,48
     590:	00000713          	li	a4,0
     594:	00a52693          	slti	a3,a0,10
     598:	00e69663          	bne	a3,a4,5a4 <else>
     59c:	00c50533          	add	a0,a0,a2
     5a0:	00008067          	ret

000005a4 <else>:
     5a4:	00b50533          	add	a0,a0,a1
     5a8:	00008067          	ret

000005ac <generateseed>:
     5ac:	ff010113          	addi	sp,sp,-16
     5b0:	00002537          	lui	a0,0x2
     5b4:	00812423          	sw	s0,8(sp)
     5b8:	5dc50513          	addi	a0,a0,1500 # 25dc <pieces+0xc4>
     5bc:	00002437          	lui	s0,0x2
     5c0:	00112623          	sw	ra,12(sp)
     5c4:	50042623          	sw	zero,1292(s0) # 250c <seed>
     5c8:	181010ef          	jal	1f48 <print>
     5cc:	0440006f          	j	610 <generateseed+0x64>
     5d0:	704010ef          	jal	1cd4 <get_btn>
     5d4:	00050793          	mv	a5,a0
     5d8:	00200513          	li	a0,2
     5dc:	04079463          	bnez	a5,624 <generateseed+0x78>
     5e0:	6f4010ef          	jal	1cd4 <get_btn>
     5e4:	00050793          	mv	a5,a0
     5e8:	00300513          	li	a0,3
     5ec:	02079c63          	bnez	a5,624 <generateseed+0x78>
     5f0:	6e4010ef          	jal	1cd4 <get_btn>
     5f4:	00050793          	mv	a5,a0
     5f8:	00100513          	li	a0,1
     5fc:	02079463          	bnez	a5,624 <generateseed+0x78>
     600:	50c42783          	lw	a5,1292(s0)
     604:	00178793          	addi	a5,a5,1
     608:	50f42623          	sw	a5,1292(s0)
     60c:	e85ff0ef          	jal	490 <delay>
     610:	00000513          	li	a0,0
     614:	6c0010ef          	jal	1cd4 <get_btn>
     618:	00050793          	mv	a5,a0
     61c:	00100513          	li	a0,1
     620:	fa0788e3          	beqz	a5,5d0 <generateseed+0x24>
     624:	00002537          	lui	a0,0x2
     628:	60c50513          	addi	a0,a0,1548 # 260c <pieces+0xf4>
     62c:	11d010ef          	jal	1f48 <print>
     630:	50c42503          	lw	a0,1292(s0)
     634:	14d010ef          	jal	1f80 <print_dec>
     638:	00812403          	lw	s0,8(sp)
     63c:	00c12083          	lw	ra,12(sp)
     640:	00002537          	lui	a0,0x2
     644:	61c50513          	addi	a0,a0,1564 # 261c <pieces+0x104>
     648:	01010113          	addi	sp,sp,16
     64c:	0fd0106f          	j	1f48 <print>

00000650 <rand>:
     650:	00002737          	lui	a4,0x2
     654:	50c72503          	lw	a0,1292(a4) # 250c <seed>
     658:	41c657b7          	lui	a5,0x41c65
     65c:	e6d78793          	addi	a5,a5,-403 # 41c64e6d <_stack_end+0x41b62779>
     660:	02f50533          	mul	a0,a0,a5
     664:	000037b7          	lui	a5,0x3
     668:	03978793          	addi	a5,a5,57 # 3039 <__global_pointer+0x460>
     66c:	00f50533          	add	a0,a0,a5
     670:	00151793          	slli	a5,a0,0x1
     674:	50a72623          	sw	a0,1292(a4)
     678:	0117d513          	srli	a0,a5,0x11
     67c:	00008067          	ret

00000680 <clearboard>:
     680:	000027b7          	lui	a5,0x2
     684:	40078793          	addi	a5,a5,1024 # 2400 <board>
     688:	0007a023          	sw	zero,0(a5)
     68c:	0007a223          	sw	zero,4(a5)
     690:	0007a423          	sw	zero,8(a5)
     694:	0007a623          	sw	zero,12(a5)
     698:	0007a823          	sw	zero,16(a5)
     69c:	0007aa23          	sw	zero,20(a5)
     6a0:	0007ac23          	sw	zero,24(a5)
     6a4:	0007ae23          	sw	zero,28(a5)
     6a8:	0207a023          	sw	zero,32(a5)
     6ac:	0207a223          	sw	zero,36(a5)
     6b0:	0207a423          	sw	zero,40(a5)
     6b4:	0207a623          	sw	zero,44(a5)
     6b8:	0207a823          	sw	zero,48(a5)
     6bc:	0207aa23          	sw	zero,52(a5)
     6c0:	0207ac23          	sw	zero,56(a5)
     6c4:	0207ae23          	sw	zero,60(a5)
     6c8:	0407a023          	sw	zero,64(a5)
     6cc:	0407a223          	sw	zero,68(a5)
     6d0:	0407a423          	sw	zero,72(a5)
     6d4:	0407a623          	sw	zero,76(a5)
     6d8:	0407a823          	sw	zero,80(a5)
     6dc:	0407aa23          	sw	zero,84(a5)
     6e0:	0407ac23          	sw	zero,88(a5)
     6e4:	0407ae23          	sw	zero,92(a5)
     6e8:	0607a023          	sw	zero,96(a5)
     6ec:	0607a223          	sw	zero,100(a5)
     6f0:	0607a423          	sw	zero,104(a5)
     6f4:	0607a623          	sw	zero,108(a5)
     6f8:	0607a823          	sw	zero,112(a5)
     6fc:	0607aa23          	sw	zero,116(a5)
     700:	0607ac23          	sw	zero,120(a5)
     704:	0607ae23          	sw	zero,124(a5)
     708:	0807a023          	sw	zero,128(a5)
     70c:	0807a223          	sw	zero,132(a5)
     710:	0807a423          	sw	zero,136(a5)
     714:	0807a623          	sw	zero,140(a5)
     718:	0807a823          	sw	zero,144(a5)
     71c:	0807aa23          	sw	zero,148(a5)
     720:	0807ac23          	sw	zero,152(a5)
     724:	0807ae23          	sw	zero,156(a5)
     728:	0a07a023          	sw	zero,160(a5)
     72c:	0a07a223          	sw	zero,164(a5)
     730:	0a07a423          	sw	zero,168(a5)
     734:	0a07a623          	sw	zero,172(a5)
     738:	0a07a823          	sw	zero,176(a5)
     73c:	0a07aa23          	sw	zero,180(a5)
     740:	0a07ac23          	sw	zero,184(a5)
     744:	0a07ae23          	sw	zero,188(a5)
     748:	0c07a023          	sw	zero,192(a5)
     74c:	0c07a223          	sw	zero,196(a5)
     750:	00008067          	ret

00000754 <draw_board>:
     754:	fe010113          	addi	sp,sp,-32
     758:	01512223          	sw	s5,4(sp)
     75c:	00050a93          	mv	s5,a0
     760:	00000513          	li	a0,0
     764:	00112e23          	sw	ra,28(sp)
     768:	00812c23          	sw	s0,24(sp)
     76c:	00912a23          	sw	s1,20(sp)
     770:	01212823          	sw	s2,16(sp)
     774:	01312623          	sw	s3,12(sp)
     778:	01412423          	sw	s4,8(sp)
     77c:	01612023          	sw	s6,0(sp)
     780:	b25ff0ef          	jal	2a4 <clear_backbuffer>
     784:	0ff00713          	li	a4,255
     788:	00100693          	li	a3,1
     78c:	06600613          	li	a2,102
     790:	01300593          	li	a1,19
     794:	06500513          	li	a0,101
     798:	b65ff0ef          	jal	2fc <draw_tile>
     79c:	0ff00713          	li	a4,255
     7a0:	00100693          	li	a3,1
     7a4:	06600613          	li	a2,102
     7a8:	0dc00593          	li	a1,220
     7ac:	06500513          	li	a0,101
     7b0:	b4dff0ef          	jal	2fc <draw_tile>
     7b4:	0ff00713          	li	a4,255
     7b8:	0c800693          	li	a3,200
     7bc:	00100613          	li	a2,1
     7c0:	01400593          	li	a1,20
     7c4:	06500513          	li	a0,101
     7c8:	b35ff0ef          	jal	2fc <draw_tile>
     7cc:	0ff00713          	li	a4,255
     7d0:	0c800693          	li	a3,200
     7d4:	00100613          	li	a2,1
     7d8:	01400593          	li	a1,20
     7dc:	0ca00513          	li	a0,202
     7e0:	b1dff0ef          	jal	2fc <draw_tile>
     7e4:	01e00413          	li	s0,30
     7e8:	0dc00493          	li	s1,220
     7ec:	00040593          	mv	a1,s0
     7f0:	04900713          	li	a4,73
     7f4:	00100693          	li	a3,1
     7f8:	06400613          	li	a2,100
     7fc:	06600513          	li	a0,102
     800:	00a40413          	addi	s0,s0,10
     804:	af9ff0ef          	jal	2fc <draw_tile>
     808:	fe9412e3          	bne	s0,s1,7ec <draw_board+0x98>
     80c:	07000413          	li	s0,112
     810:	0ca00493          	li	s1,202
     814:	00040513          	mv	a0,s0
     818:	04900713          	li	a4,73
     81c:	0c800693          	li	a3,200
     820:	00100613          	li	a2,1
     824:	01400593          	li	a1,20
     828:	00a40413          	addi	s0,s0,10
     82c:	ad1ff0ef          	jal	2fc <draw_tile>
     830:	fe9412e3          	bne	s0,s1,814 <__heap_size+0x14>
     834:	000029b7          	lui	s3,0x2
     838:	40098993          	addi	s3,s3,1024 # 2400 <board>
     83c:	00098413          	mv	s0,s3
     840:	01400b13          	li	s6,20
     844:	01500a13          	li	s4,21
     848:	0c898993          	addi	s3,s3,200
     84c:	408b0b33          	sub	s6,s6,s0
     850:	408a0a33          	sub	s4,s4,s0
     854:	0540006f          	j	8a8 <__heap_size+0xa8>
     858:	00144703          	lbu	a4,1(s0)
     85c:	0a071463          	bnez	a4,904 <__heap_size+0x104>
     860:	00244703          	lbu	a4,2(s0)
     864:	0e071663          	bnez	a4,950 <__heap_size+0x150>
     868:	00344703          	lbu	a4,3(s0)
     86c:	12071863          	bnez	a4,99c <__heap_size+0x19c>
     870:	00444703          	lbu	a4,4(s0)
     874:	16071a63          	bnez	a4,9e8 <__heap_size+0x1e8>
     878:	00544703          	lbu	a4,5(s0)
     87c:	1a071c63          	bnez	a4,a34 <__heap_size+0x234>
     880:	00644703          	lbu	a4,6(s0)
     884:	1e071e63          	bnez	a4,a80 <__heap_size+0x280>
     888:	00744703          	lbu	a4,7(s0)
     88c:	24071063          	bnez	a4,acc <__heap_size+0x2cc>
     890:	00844703          	lbu	a4,8(s0)
     894:	28071263          	bnez	a4,b18 <__heap_size+0x318>
     898:	00944703          	lbu	a4,9(s0)
     89c:	2c071463          	bnez	a4,b64 <__heap_size+0x364>
     8a0:	00a40413          	addi	s0,s0,10
     8a4:	31340663          	beq	s0,s3,bb0 <__heap_size+0x3b0>
     8a8:	00044703          	lbu	a4,0(s0)
     8ac:	008b04b3          	add	s1,s6,s0
     8b0:	008a0933          	add	s2,s4,s0
     8b4:	fa0702e3          	beqz	a4,858 <__heap_size+0x58>
     8b8:	00900693          	li	a3,9
     8bc:	00068613          	mv	a2,a3
     8c0:	00090593          	mv	a1,s2
     8c4:	06700513          	li	a0,103
     8c8:	a35ff0ef          	jal	2fc <draw_tile>
     8cc:	00048593          	mv	a1,s1
     8d0:	04900713          	li	a4,73
     8d4:	00100693          	li	a3,1
     8d8:	00a00613          	li	a2,10
     8dc:	06600513          	li	a0,102
     8e0:	a1dff0ef          	jal	2fc <draw_tile>
     8e4:	04900713          	li	a4,73
     8e8:	00048593          	mv	a1,s1
     8ec:	00a00693          	li	a3,10
     8f0:	00100613          	li	a2,1
     8f4:	06600513          	li	a0,102
     8f8:	a05ff0ef          	jal	2fc <draw_tile>
     8fc:	00144703          	lbu	a4,1(s0)
     900:	f60700e3          	beqz	a4,860 <__heap_size+0x60>
     904:	00900693          	li	a3,9
     908:	00068613          	mv	a2,a3
     90c:	00090593          	mv	a1,s2
     910:	07100513          	li	a0,113
     914:	9e9ff0ef          	jal	2fc <draw_tile>
     918:	00048593          	mv	a1,s1
     91c:	04900713          	li	a4,73
     920:	00100693          	li	a3,1
     924:	00a00613          	li	a2,10
     928:	07000513          	li	a0,112
     92c:	9d1ff0ef          	jal	2fc <draw_tile>
     930:	04900713          	li	a4,73
     934:	00048593          	mv	a1,s1
     938:	00a00693          	li	a3,10
     93c:	00100613          	li	a2,1
     940:	07000513          	li	a0,112
     944:	9b9ff0ef          	jal	2fc <draw_tile>
     948:	00244703          	lbu	a4,2(s0)
     94c:	f0070ee3          	beqz	a4,868 <__heap_size+0x68>
     950:	00900693          	li	a3,9
     954:	00068613          	mv	a2,a3
     958:	00090593          	mv	a1,s2
     95c:	07b00513          	li	a0,123
     960:	99dff0ef          	jal	2fc <draw_tile>
     964:	00048593          	mv	a1,s1
     968:	04900713          	li	a4,73
     96c:	00100693          	li	a3,1
     970:	00a00613          	li	a2,10
     974:	07a00513          	li	a0,122
     978:	985ff0ef          	jal	2fc <draw_tile>
     97c:	04900713          	li	a4,73
     980:	00048593          	mv	a1,s1
     984:	00a00693          	li	a3,10
     988:	00100613          	li	a2,1
     98c:	07a00513          	li	a0,122
     990:	96dff0ef          	jal	2fc <draw_tile>
     994:	00344703          	lbu	a4,3(s0)
     998:	ec070ce3          	beqz	a4,870 <__heap_size+0x70>
     99c:	00900693          	li	a3,9
     9a0:	00068613          	mv	a2,a3
     9a4:	00090593          	mv	a1,s2
     9a8:	08500513          	li	a0,133
     9ac:	951ff0ef          	jal	2fc <draw_tile>
     9b0:	00048593          	mv	a1,s1
     9b4:	04900713          	li	a4,73
     9b8:	00100693          	li	a3,1
     9bc:	00a00613          	li	a2,10
     9c0:	08400513          	li	a0,132
     9c4:	939ff0ef          	jal	2fc <draw_tile>
     9c8:	04900713          	li	a4,73
     9cc:	00048593          	mv	a1,s1
     9d0:	00a00693          	li	a3,10
     9d4:	00100613          	li	a2,1
     9d8:	08400513          	li	a0,132
     9dc:	921ff0ef          	jal	2fc <draw_tile>
     9e0:	00444703          	lbu	a4,4(s0)
     9e4:	e8070ae3          	beqz	a4,878 <__heap_size+0x78>
     9e8:	00900693          	li	a3,9
     9ec:	00068613          	mv	a2,a3
     9f0:	00090593          	mv	a1,s2
     9f4:	08f00513          	li	a0,143
     9f8:	905ff0ef          	jal	2fc <draw_tile>
     9fc:	00048593          	mv	a1,s1
     a00:	04900713          	li	a4,73
     a04:	00100693          	li	a3,1
     a08:	00a00613          	li	a2,10
     a0c:	08e00513          	li	a0,142
     a10:	8edff0ef          	jal	2fc <draw_tile>
     a14:	04900713          	li	a4,73
     a18:	00048593          	mv	a1,s1
     a1c:	00a00693          	li	a3,10
     a20:	00100613          	li	a2,1
     a24:	08e00513          	li	a0,142
     a28:	8d5ff0ef          	jal	2fc <draw_tile>
     a2c:	00544703          	lbu	a4,5(s0)
     a30:	e40708e3          	beqz	a4,880 <__heap_size+0x80>
     a34:	00900693          	li	a3,9
     a38:	00068613          	mv	a2,a3
     a3c:	00090593          	mv	a1,s2
     a40:	09900513          	li	a0,153
     a44:	8b9ff0ef          	jal	2fc <draw_tile>
     a48:	00048593          	mv	a1,s1
     a4c:	04900713          	li	a4,73
     a50:	00100693          	li	a3,1
     a54:	00a00613          	li	a2,10
     a58:	09800513          	li	a0,152
     a5c:	8a1ff0ef          	jal	2fc <draw_tile>
     a60:	04900713          	li	a4,73
     a64:	00048593          	mv	a1,s1
     a68:	00a00693          	li	a3,10
     a6c:	00100613          	li	a2,1
     a70:	09800513          	li	a0,152
     a74:	889ff0ef          	jal	2fc <draw_tile>
     a78:	00644703          	lbu	a4,6(s0)
     a7c:	e00706e3          	beqz	a4,888 <__heap_size+0x88>
     a80:	00900693          	li	a3,9
     a84:	00068613          	mv	a2,a3
     a88:	00090593          	mv	a1,s2
     a8c:	0a300513          	li	a0,163
     a90:	86dff0ef          	jal	2fc <draw_tile>
     a94:	00048593          	mv	a1,s1
     a98:	04900713          	li	a4,73
     a9c:	00100693          	li	a3,1
     aa0:	00a00613          	li	a2,10
     aa4:	0a200513          	li	a0,162
     aa8:	855ff0ef          	jal	2fc <draw_tile>
     aac:	04900713          	li	a4,73
     ab0:	00048593          	mv	a1,s1
     ab4:	00a00693          	li	a3,10
     ab8:	00100613          	li	a2,1
     abc:	0a200513          	li	a0,162
     ac0:	83dff0ef          	jal	2fc <draw_tile>
     ac4:	00744703          	lbu	a4,7(s0)
     ac8:	dc0704e3          	beqz	a4,890 <__heap_size+0x90>
     acc:	00900693          	li	a3,9
     ad0:	00068613          	mv	a2,a3
     ad4:	00090593          	mv	a1,s2
     ad8:	0ad00513          	li	a0,173
     adc:	821ff0ef          	jal	2fc <draw_tile>
     ae0:	00048593          	mv	a1,s1
     ae4:	04900713          	li	a4,73
     ae8:	00100693          	li	a3,1
     aec:	00a00613          	li	a2,10
     af0:	0ac00513          	li	a0,172
     af4:	809ff0ef          	jal	2fc <draw_tile>
     af8:	04900713          	li	a4,73
     afc:	00048593          	mv	a1,s1
     b00:	00a00693          	li	a3,10
     b04:	00100613          	li	a2,1
     b08:	0ac00513          	li	a0,172
     b0c:	ff0ff0ef          	jal	2fc <draw_tile>
     b10:	00844703          	lbu	a4,8(s0)
     b14:	d80702e3          	beqz	a4,898 <__heap_size+0x98>
     b18:	00900693          	li	a3,9
     b1c:	00068613          	mv	a2,a3
     b20:	00090593          	mv	a1,s2
     b24:	0b700513          	li	a0,183
     b28:	fd4ff0ef          	jal	2fc <draw_tile>
     b2c:	00048593          	mv	a1,s1
     b30:	04900713          	li	a4,73
     b34:	00100693          	li	a3,1
     b38:	00a00613          	li	a2,10
     b3c:	0b600513          	li	a0,182
     b40:	fbcff0ef          	jal	2fc <draw_tile>
     b44:	04900713          	li	a4,73
     b48:	00048593          	mv	a1,s1
     b4c:	00a00693          	li	a3,10
     b50:	00100613          	li	a2,1
     b54:	0b600513          	li	a0,182
     b58:	fa4ff0ef          	jal	2fc <draw_tile>
     b5c:	00944703          	lbu	a4,9(s0)
     b60:	d40700e3          	beqz	a4,8a0 <__heap_size+0xa0>
     b64:	00900693          	li	a3,9
     b68:	00068613          	mv	a2,a3
     b6c:	00090593          	mv	a1,s2
     b70:	0c100513          	li	a0,193
     b74:	f88ff0ef          	jal	2fc <draw_tile>
     b78:	00048593          	mv	a1,s1
     b7c:	04900713          	li	a4,73
     b80:	00100693          	li	a3,1
     b84:	00a00613          	li	a2,10
     b88:	0c000513          	li	a0,192
     b8c:	f70ff0ef          	jal	2fc <draw_tile>
     b90:	00048593          	mv	a1,s1
     b94:	04900713          	li	a4,73
     b98:	00a00693          	li	a3,10
     b9c:	00100613          	li	a2,1
     ba0:	0c000513          	li	a0,192
     ba4:	00a40413          	addi	s0,s0,10
     ba8:	f54ff0ef          	jal	2fc <draw_tile>
     bac:	cf341ee3          	bne	s0,s3,8a8 <__heap_size+0xa8>
     bb0:	008aa703          	lw	a4,8(s5)
     bb4:	00072903          	lw	s2,0(a4)
     bb8:	0f205463          	blez	s2,ca0 <__heap_size+0x4a0>
     bbc:	00cac783          	lbu	a5,12(s5)
     bc0:	00ca8413          	addi	s0,s5,12
     bc4:	00000493          	li	s1,0
     bc8:	06079463          	bnez	a5,c30 <__heap_size+0x430>
     bcc:	00100793          	li	a5,1
     bd0:	02f90663          	beq	s2,a5,bfc <__heap_size+0x3fc>
     bd4:	00144783          	lbu	a5,1(s0)
     bd8:	0e079863          	bnez	a5,cc8 <__heap_size+0x4c8>
     bdc:	00200793          	li	a5,2
     be0:	00f90e63          	beq	s2,a5,bfc <__heap_size+0x3fc>
     be4:	00244783          	lbu	a5,2(s0)
     be8:	14079c63          	bnez	a5,d40 <__heap_size+0x540>
     bec:	00300793          	li	a5,3
     bf0:	00f90663          	beq	s2,a5,bfc <__heap_size+0x3fc>
     bf4:	00344783          	lbu	a5,3(s0)
     bf8:	1c079063          	bnez	a5,db8 <__heap_size+0x5b8>
     bfc:	00148493          	addi	s1,s1,1
     c00:	0a990063          	beq	s2,s1,ca0 <__heap_size+0x4a0>
     c04:	00444783          	lbu	a5,4(s0)
     c08:	00440413          	addi	s0,s0,4
     c0c:	00100713          	li	a4,1
     c10:	00079e63          	bnez	a5,c2c <__heap_size+0x42c>
     c14:	fce910e3          	bne	s2,a4,bd4 <__heap_size+0x3d4>
     c18:	00444783          	lbu	a5,4(s0)
     c1c:	00440413          	addi	s0,s0,4
     c20:	00148493          	addi	s1,s1,1
     c24:	00100713          	li	a4,1
     c28:	fe0786e3          	beqz	a5,c14 <__heap_size+0x414>
     c2c:	008aa703          	lw	a4,8(s5)
     c30:	000aa783          	lw	a5,0(s5)
     c34:	004aa683          	lw	a3,4(s5)
     c38:	01472703          	lw	a4,20(a4)
     c3c:	00f487b3          	add	a5,s1,a5
     c40:	00279a13          	slli	s4,a5,0x2
     c44:	00269993          	slli	s3,a3,0x2
     c48:	00fa0a33          	add	s4,s4,a5
     c4c:	00d989b3          	add	s3,s3,a3
     c50:	001a1a13          	slli	s4,s4,0x1
     c54:	00199993          	slli	s3,s3,0x1
     c58:	00900693          	li	a3,9
     c5c:	015a0593          	addi	a1,s4,21
     c60:	06798513          	addi	a0,s3,103
     c64:	00068613          	mv	a2,a3
     c68:	e94ff0ef          	jal	2fc <draw_tile>
     c6c:	014a0593          	addi	a1,s4,20
     c70:	06698513          	addi	a0,s3,102
     c74:	04900713          	li	a4,73
     c78:	00100693          	li	a3,1
     c7c:	00a00613          	li	a2,10
     c80:	e7cff0ef          	jal	2fc <draw_tile>
     c84:	014a0593          	addi	a1,s4,20
     c88:	06698513          	addi	a0,s3,102
     c8c:	04900713          	li	a4,73
     c90:	00a00693          	li	a3,10
     c94:	00100613          	li	a2,1
     c98:	e64ff0ef          	jal	2fc <draw_tile>
     c9c:	f31ff06f          	j	bcc <__heap_size+0x3cc>
     ca0:	01812403          	lw	s0,24(sp)
     ca4:	01c12083          	lw	ra,28(sp)
     ca8:	01412483          	lw	s1,20(sp)
     cac:	01012903          	lw	s2,16(sp)
     cb0:	00c12983          	lw	s3,12(sp)
     cb4:	00812a03          	lw	s4,8(sp)
     cb8:	00412a83          	lw	s5,4(sp)
     cbc:	00012b03          	lw	s6,0(sp)
     cc0:	02010113          	addi	sp,sp,32
     cc4:	e90ff06f          	j	354 <swap_buffers_blocking>
     cc8:	004aa703          	lw	a4,4(s5)
     ccc:	000aa783          	lw	a5,0(s5)
     cd0:	008aa683          	lw	a3,8(s5)
     cd4:	00170713          	addi	a4,a4,1
     cd8:	00f487b3          	add	a5,s1,a5
     cdc:	00279a13          	slli	s4,a5,0x2
     ce0:	00271993          	slli	s3,a4,0x2
     ce4:	00fa0a33          	add	s4,s4,a5
     ce8:	00e989b3          	add	s3,s3,a4
     cec:	0146a703          	lw	a4,20(a3)
     cf0:	00199993          	slli	s3,s3,0x1
     cf4:	001a1a13          	slli	s4,s4,0x1
     cf8:	00900693          	li	a3,9
     cfc:	06798513          	addi	a0,s3,103
     d00:	015a0593          	addi	a1,s4,21
     d04:	00068613          	mv	a2,a3
     d08:	df4ff0ef          	jal	2fc <draw_tile>
     d0c:	014a0593          	addi	a1,s4,20
     d10:	06698513          	addi	a0,s3,102
     d14:	04900713          	li	a4,73
     d18:	00100693          	li	a3,1
     d1c:	00a00613          	li	a2,10
     d20:	ddcff0ef          	jal	2fc <draw_tile>
     d24:	014a0593          	addi	a1,s4,20
     d28:	06698513          	addi	a0,s3,102
     d2c:	04900713          	li	a4,73
     d30:	00a00693          	li	a3,10
     d34:	00100613          	li	a2,1
     d38:	dc4ff0ef          	jal	2fc <draw_tile>
     d3c:	ea1ff06f          	j	bdc <__heap_size+0x3dc>
     d40:	004aa703          	lw	a4,4(s5)
     d44:	000aa783          	lw	a5,0(s5)
     d48:	008aa683          	lw	a3,8(s5)
     d4c:	00270713          	addi	a4,a4,2
     d50:	00f487b3          	add	a5,s1,a5
     d54:	00279a13          	slli	s4,a5,0x2
     d58:	00271993          	slli	s3,a4,0x2
     d5c:	00fa0a33          	add	s4,s4,a5
     d60:	00e989b3          	add	s3,s3,a4
     d64:	0146a703          	lw	a4,20(a3)
     d68:	00199993          	slli	s3,s3,0x1
     d6c:	001a1a13          	slli	s4,s4,0x1
     d70:	00900693          	li	a3,9
     d74:	06798513          	addi	a0,s3,103
     d78:	015a0593          	addi	a1,s4,21
     d7c:	00068613          	mv	a2,a3
     d80:	d7cff0ef          	jal	2fc <draw_tile>
     d84:	014a0593          	addi	a1,s4,20
     d88:	06698513          	addi	a0,s3,102
     d8c:	04900713          	li	a4,73
     d90:	00100693          	li	a3,1
     d94:	00a00613          	li	a2,10
     d98:	d64ff0ef          	jal	2fc <draw_tile>
     d9c:	014a0593          	addi	a1,s4,20
     da0:	06698513          	addi	a0,s3,102
     da4:	04900713          	li	a4,73
     da8:	00a00693          	li	a3,10
     dac:	00100613          	li	a2,1
     db0:	d4cff0ef          	jal	2fc <draw_tile>
     db4:	e39ff06f          	j	bec <__heap_size+0x3ec>
     db8:	004aa703          	lw	a4,4(s5)
     dbc:	000aa783          	lw	a5,0(s5)
     dc0:	008aa683          	lw	a3,8(s5)
     dc4:	00370713          	addi	a4,a4,3
     dc8:	00f487b3          	add	a5,s1,a5
     dcc:	00279a13          	slli	s4,a5,0x2
     dd0:	00271993          	slli	s3,a4,0x2
     dd4:	00fa0a33          	add	s4,s4,a5
     dd8:	00e989b3          	add	s3,s3,a4
     ddc:	0146a703          	lw	a4,20(a3)
     de0:	00199993          	slli	s3,s3,0x1
     de4:	001a1a13          	slli	s4,s4,0x1
     de8:	00900693          	li	a3,9
     dec:	06798513          	addi	a0,s3,103
     df0:	015a0593          	addi	a1,s4,21
     df4:	00068613          	mv	a2,a3
     df8:	d04ff0ef          	jal	2fc <draw_tile>
     dfc:	014a0593          	addi	a1,s4,20
     e00:	06698513          	addi	a0,s3,102
     e04:	04900713          	li	a4,73
     e08:	00100693          	li	a3,1
     e0c:	00a00613          	li	a2,10
     e10:	cecff0ef          	jal	2fc <draw_tile>
     e14:	014a0593          	addi	a1,s4,20
     e18:	06698513          	addi	a0,s3,102
     e1c:	04900713          	li	a4,73
     e20:	00a00693          	li	a3,10
     e24:	00100613          	li	a2,1
     e28:	cd4ff0ef          	jal	2fc <draw_tile>
     e2c:	dd1ff06f          	j	bfc <__heap_size+0x3fc>

00000e30 <spawnpiece>:
     e30:	fe010113          	addi	sp,sp,-32
     e34:	00812c23          	sw	s0,24(sp)
     e38:	01412423          	sw	s4,8(sp)
     e3c:	01612023          	sw	s6,0(sp)
     e40:	00002a37          	lui	s4,0x2
     e44:	00008b37          	lui	s6,0x8
     e48:	00002437          	lui	s0,0x2
     e4c:	00912a23          	sw	s1,20(sp)
     e50:	01212823          	sw	s2,16(sp)
     e54:	01312623          	sw	s3,12(sp)
     e58:	01512223          	sw	s5,4(sp)
     e5c:	00112e23          	sw	ra,28(sp)
     e60:	00050493          	mv	s1,a0
     e64:	518a0a13          	addi	s4,s4,1304 # 2518 <pieces>
     e68:	fffb0b13          	addi	s6,s6,-1 # 7fff <__global_pointer+0x5426>
     e6c:	40040413          	addi	s0,s0,1024 # 2400 <board>
     e70:	00002ab7          	lui	s5,0x2
     e74:	00100913          	li	s2,1
     e78:	00200993          	li	s3,2
     e7c:	50caa703          	lw	a4,1292(s5) # 250c <seed>
     e80:	41c657b7          	lui	a5,0x41c65
     e84:	e6d78793          	addi	a5,a5,-403 # 41c64e6d <_stack_end+0x41b62779>
     e88:	02f70733          	mul	a4,a4,a5
     e8c:	000036b7          	lui	a3,0x3
     e90:	03968693          	addi	a3,a3,57 # 3039 <__global_pointer+0x460>
     e94:	924927b7          	lui	a5,0x92492
     e98:	49378793          	addi	a5,a5,1171 # 92492493 <_stack_end+0x9238fd9f>
     e9c:	00a00593          	li	a1,10
     ea0:	0004a023          	sw	zero,0(s1)
     ea4:	00d70733          	add	a4,a4,a3
     ea8:	01075693          	srli	a3,a4,0x10
     eac:	50eaa623          	sw	a4,1292(s5)
     eb0:	0166f733          	and	a4,a3,s6
     eb4:	02f717b3          	mulh	a5,a4,a5
     eb8:	00e787b3          	add	a5,a5,a4
     ebc:	4027d793          	srai	a5,a5,0x2
     ec0:	00379693          	slli	a3,a5,0x3
     ec4:	40f687b3          	sub	a5,a3,a5
     ec8:	40f707b3          	sub	a5,a4,a5
     ecc:	00379693          	slli	a3,a5,0x3
     ed0:	40f686b3          	sub	a3,a3,a5
     ed4:	00269693          	slli	a3,a3,0x2
     ed8:	00da0633          	add	a2,s4,a3
     edc:	00062783          	lw	a5,0(a2)
     ee0:	00c4a423          	sw	a2,8(s1)
     ee4:	40f58733          	sub	a4,a1,a5
     ee8:	01f75593          	srli	a1,a4,0x1f
     eec:	00e58733          	add	a4,a1,a4
     ef0:	40175713          	srai	a4,a4,0x1
     ef4:	00e4a223          	sw	a4,4(s1)
     ef8:	14f05a63          	blez	a5,104c <spawnpiece+0x21c>
     efc:	00464583          	lbu	a1,4(a2)
     f00:	00b48623          	sb	a1,12(s1)
     f04:	05278e63          	beq	a5,s2,f60 <spawnpiece+0x130>
     f08:	00564583          	lbu	a1,5(a2)
     f0c:	00b486a3          	sb	a1,13(s1)
     f10:	2f378a63          	beq	a5,s3,1204 <spawnpiece+0x3d4>
     f14:	00664583          	lbu	a1,6(a2)
     f18:	00300513          	li	a0,3
     f1c:	00b48723          	sb	a1,14(s1)
     f20:	2ea78a63          	beq	a5,a0,1214 <spawnpiece+0x3e4>
     f24:	00764803          	lbu	a6,7(a2)
     f28:	00da0533          	add	a0,s4,a3
     f2c:	00050593          	mv	a1,a0
     f30:	010487a3          	sb	a6,15(s1)
     f34:	00855503          	lhu	a0,8(a0)
     f38:	00058693          	mv	a3,a1
     f3c:	00a49823          	sh	a0,16(s1)
     f40:	00a65503          	lhu	a0,10(a2)
     f44:	00a49923          	sh	a0,18(s1)
     f48:	00c5d583          	lhu	a1,12(a1)
     f4c:	00b49a23          	sh	a1,20(s1)
     f50:	00e65603          	lhu	a2,14(a2)
     f54:	00c49b23          	sh	a2,22(s1)
     f58:	0106a683          	lw	a3,16(a3)
     f5c:	00d4ac23          	sw	a3,24(s1)
     f60:	00c48693          	addi	a3,s1,12
     f64:	00e405b3          	add	a1,s0,a4
     f68:	00068613          	mv	a2,a3
     f6c:	00058513          	mv	a0,a1
     f70:	00100893          	li	a7,1
     f74:	00300313          	li	t1,3
     f78:	00064803          	lbu	a6,0(a2)
     f7c:	00080663          	beqz	a6,f88 <spawnpiece+0x158>
     f80:	00a54803          	lbu	a6,10(a0)
     f84:	04081a63          	bnez	a6,fd8 <spawnpiece+0x1a8>
     f88:	03278e63          	beq	a5,s2,fc4 <spawnpiece+0x194>
     f8c:	00164803          	lbu	a6,1(a2)
     f90:	00080663          	beqz	a6,f9c <spawnpiece+0x16c>
     f94:	00b54803          	lbu	a6,11(a0)
     f98:	04081063          	bnez	a6,fd8 <spawnpiece+0x1a8>
     f9c:	03378463          	beq	a5,s3,fc4 <spawnpiece+0x194>
     fa0:	00264803          	lbu	a6,2(a2)
     fa4:	00080663          	beqz	a6,fb0 <spawnpiece+0x180>
     fa8:	00c54803          	lbu	a6,12(a0)
     fac:	02081663          	bnez	a6,fd8 <spawnpiece+0x1a8>
     fb0:	00678a63          	beq	a5,t1,fc4 <spawnpiece+0x194>
     fb4:	00364803          	lbu	a6,3(a2)
     fb8:	00080663          	beqz	a6,fc4 <spawnpiece+0x194>
     fbc:	00d54803          	lbu	a6,13(a0)
     fc0:	00081c63          	bnez	a6,fd8 <spawnpiece+0x1a8>
     fc4:	00460613          	addi	a2,a2,4
     fc8:	00a50513          	addi	a0,a0,10
     fcc:	09178063          	beq	a5,a7,104c <spawnpiece+0x21c>
     fd0:	00188893          	addi	a7,a7,1
     fd4:	fa5ff06f          	j	f78 <spawnpiece+0x148>
     fd8:	fff70313          	addi	t1,a4,-1
     fdc:	00068613          	mv	a2,a3
     fe0:	00000813          	li	a6,0
     fe4:	00300893          	li	a7,3
     fe8:	00064503          	lbu	a0,0(a2)
     fec:	00050a63          	beqz	a0,1000 <spawnpiece+0x1d0>
     ff0:	40e58533          	sub	a0,a1,a4
     ff4:	00650533          	add	a0,a0,t1
     ff8:	00054503          	lbu	a0,0(a0)
     ffc:	06051c63          	bnez	a0,1074 <spawnpiece+0x244>
    1000:	03278e63          	beq	a5,s2,103c <spawnpiece+0x20c>
    1004:	00164503          	lbu	a0,1(a2)
    1008:	00050663          	beqz	a0,1014 <spawnpiece+0x1e4>
    100c:	0005c503          	lbu	a0,0(a1)
    1010:	06051263          	bnez	a0,1074 <spawnpiece+0x244>
    1014:	03378463          	beq	a5,s3,103c <spawnpiece+0x20c>
    1018:	00264503          	lbu	a0,2(a2)
    101c:	00050663          	beqz	a0,1028 <spawnpiece+0x1f8>
    1020:	0015c503          	lbu	a0,1(a1)
    1024:	04051863          	bnez	a0,1074 <spawnpiece+0x244>
    1028:	01178a63          	beq	a5,a7,103c <spawnpiece+0x20c>
    102c:	00364503          	lbu	a0,3(a2)
    1030:	00050663          	beqz	a0,103c <spawnpiece+0x20c>
    1034:	0025c503          	lbu	a0,2(a1)
    1038:	02051e63          	bnez	a0,1074 <spawnpiece+0x244>
    103c:	00180813          	addi	a6,a6,1
    1040:	00460613          	addi	a2,a2,4
    1044:	00a58593          	addi	a1,a1,10
    1048:	fb0790e3          	bne	a5,a6,fe8 <spawnpiece+0x1b8>
    104c:	01c12083          	lw	ra,28(sp)
    1050:	01812403          	lw	s0,24(sp)
    1054:	01412483          	lw	s1,20(sp)
    1058:	01012903          	lw	s2,16(sp)
    105c:	00c12983          	lw	s3,12(sp)
    1060:	00812a03          	lw	s4,8(sp)
    1064:	00412a83          	lw	s5,4(sp)
    1068:	00012b03          	lw	s6,0(sp)
    106c:	02010113          	addi	sp,sp,32
    1070:	00008067          	ret
    1074:	00170593          	addi	a1,a4,1
    1078:	00b40633          	add	a2,s0,a1
    107c:	00000813          	li	a6,0
    1080:	00300893          	li	a7,3
    1084:	0006c503          	lbu	a0,0(a3)
    1088:	00050663          	beqz	a0,1094 <spawnpiece+0x264>
    108c:	00064503          	lbu	a0,0(a2)
    1090:	06051663          	bnez	a0,10fc <spawnpiece+0x2cc>
    1094:	05278a63          	beq	a5,s2,10e8 <spawnpiece+0x2b8>
    1098:	0016c503          	lbu	a0,1(a3)
    109c:	00050a63          	beqz	a0,10b0 <spawnpiece+0x280>
    10a0:	40b60533          	sub	a0,a2,a1
    10a4:	00e50533          	add	a0,a0,a4
    10a8:	00254503          	lbu	a0,2(a0)
    10ac:	04051863          	bnez	a0,10fc <spawnpiece+0x2cc>
    10b0:	03378c63          	beq	a5,s3,10e8 <spawnpiece+0x2b8>
    10b4:	0026c503          	lbu	a0,2(a3)
    10b8:	00050a63          	beqz	a0,10cc <spawnpiece+0x29c>
    10bc:	40b60533          	sub	a0,a2,a1
    10c0:	00e50533          	add	a0,a0,a4
    10c4:	00354503          	lbu	a0,3(a0)
    10c8:	02051a63          	bnez	a0,10fc <spawnpiece+0x2cc>
    10cc:	01178e63          	beq	a5,a7,10e8 <spawnpiece+0x2b8>
    10d0:	0036c503          	lbu	a0,3(a3)
    10d4:	00050a63          	beqz	a0,10e8 <spawnpiece+0x2b8>
    10d8:	40b60533          	sub	a0,a2,a1
    10dc:	00e50533          	add	a0,a0,a4
    10e0:	00454503          	lbu	a0,4(a0)
    10e4:	00051c63          	bnez	a0,10fc <spawnpiece+0x2cc>
    10e8:	00180813          	addi	a6,a6,1
    10ec:	00468693          	addi	a3,a3,4
    10f0:	00a60613          	addi	a2,a2,10
    10f4:	f90798e3          	bne	a5,a6,1084 <spawnpiece+0x254>
    10f8:	f55ff06f          	j	104c <spawnpiece+0x21c>
    10fc:	00002537          	lui	a0,0x2
    1100:	62050513          	addi	a0,a0,1568 # 2620 <pieces+0x108>
    1104:	645000ef          	jal	1f48 <print>
    1108:	00002537          	lui	a0,0x2
    110c:	63050513          	addi	a0,a0,1584 # 2630 <pieces+0x118>
    1110:	639000ef          	jal	1f48 <print>
    1114:	0080006f          	j	111c <spawnpiece+0x2ec>
    1118:	b78ff0ef          	jal	490 <delay>
    111c:	00000513          	li	a0,0
    1120:	3b5000ef          	jal	1cd4 <get_btn>
    1124:	00050793          	mv	a5,a0
    1128:	00a00513          	li	a0,10
    112c:	fe0786e3          	beqz	a5,1118 <spawnpiece+0x2e8>
    1130:	00042023          	sw	zero,0(s0)
    1134:	00042223          	sw	zero,4(s0)
    1138:	00042423          	sw	zero,8(s0)
    113c:	00042623          	sw	zero,12(s0)
    1140:	00042823          	sw	zero,16(s0)
    1144:	00042a23          	sw	zero,20(s0)
    1148:	00042c23          	sw	zero,24(s0)
    114c:	00042e23          	sw	zero,28(s0)
    1150:	02042023          	sw	zero,32(s0)
    1154:	02042223          	sw	zero,36(s0)
    1158:	02042423          	sw	zero,40(s0)
    115c:	02042623          	sw	zero,44(s0)
    1160:	02042823          	sw	zero,48(s0)
    1164:	02042a23          	sw	zero,52(s0)
    1168:	02042c23          	sw	zero,56(s0)
    116c:	02042e23          	sw	zero,60(s0)
    1170:	04042023          	sw	zero,64(s0)
    1174:	04042223          	sw	zero,68(s0)
    1178:	04042423          	sw	zero,72(s0)
    117c:	04042623          	sw	zero,76(s0)
    1180:	04042823          	sw	zero,80(s0)
    1184:	04042a23          	sw	zero,84(s0)
    1188:	04042c23          	sw	zero,88(s0)
    118c:	04042e23          	sw	zero,92(s0)
    1190:	06042023          	sw	zero,96(s0)
    1194:	06042223          	sw	zero,100(s0)
    1198:	06042423          	sw	zero,104(s0)
    119c:	06042623          	sw	zero,108(s0)
    11a0:	06042823          	sw	zero,112(s0)
    11a4:	06042a23          	sw	zero,116(s0)
    11a8:	06042c23          	sw	zero,120(s0)
    11ac:	06042e23          	sw	zero,124(s0)
    11b0:	000027b7          	lui	a5,0x2
    11b4:	08042023          	sw	zero,128(s0)
    11b8:	08042223          	sw	zero,132(s0)
    11bc:	08042423          	sw	zero,136(s0)
    11c0:	08042623          	sw	zero,140(s0)
    11c4:	08042823          	sw	zero,144(s0)
    11c8:	08042a23          	sw	zero,148(s0)
    11cc:	08042c23          	sw	zero,152(s0)
    11d0:	08042e23          	sw	zero,156(s0)
    11d4:	0a042023          	sw	zero,160(s0)
    11d8:	0a042223          	sw	zero,164(s0)
    11dc:	0a042423          	sw	zero,168(s0)
    11e0:	0a042623          	sw	zero,172(s0)
    11e4:	0a042823          	sw	zero,176(s0)
    11e8:	0a042a23          	sw	zero,180(s0)
    11ec:	0a042c23          	sw	zero,184(s0)
    11f0:	0a042e23          	sw	zero,188(s0)
    11f4:	0c042023          	sw	zero,192(s0)
    11f8:	0c042223          	sw	zero,196(s0)
    11fc:	5007a823          	sw	zero,1296(a5) # 2510 <totallinescleard>
    1200:	c7dff06f          	j	e7c <spawnpiece+0x4c>
    1204:	00da06b3          	add	a3,s4,a3
    1208:	0086d683          	lhu	a3,8(a3)
    120c:	00d49823          	sh	a3,16(s1)
    1210:	d51ff06f          	j	f60 <spawnpiece+0x130>
    1214:	00da05b3          	add	a1,s4,a3
    1218:	0085d503          	lhu	a0,8(a1)
    121c:	00a64583          	lbu	a1,10(a2)
    1220:	00da06b3          	add	a3,s4,a3
    1224:	00a49823          	sh	a0,16(s1)
    1228:	00b48923          	sb	a1,18(s1)
    122c:	00c6d583          	lhu	a1,12(a3)
    1230:	00e64683          	lbu	a3,14(a2)
    1234:	00b49a23          	sh	a1,20(s1)
    1238:	00d48b23          	sb	a3,22(s1)
    123c:	d25ff06f          	j	f60 <spawnpiece+0x130>

00001240 <canMove>:
    1240:	00052603          	lw	a2,0(a0)
    1244:	00452803          	lw	a6,4(a0)
    1248:	0e059863          	bnez	a1,1338 <canMove+0xf8>
    124c:	fff80813          	addi	a6,a6,-1
    1250:	00852783          	lw	a5,8(a0)
    1254:	0007a883          	lw	a7,0(a5)
    1258:	0d105c63          	blez	a7,1330 <canMove+0xf0>
    125c:	00261793          	slli	a5,a2,0x2
    1260:	00002737          	lui	a4,0x2
    1264:	00c787b3          	add	a5,a5,a2
    1268:	40070713          	addi	a4,a4,1024 # 2400 <board>
    126c:	00179793          	slli	a5,a5,0x1
    1270:	01070733          	add	a4,a4,a6
    1274:	00f70733          	add	a4,a4,a5
    1278:	00a83793          	sltiu	a5,a6,10
    127c:	00c50513          	addi	a0,a0,12
    1280:	00c88f33          	add	t5,a7,a2
    1284:	0017c693          	xori	a3,a5,1
    1288:	00100313          	li	t1,1
    128c:	00200e13          	li	t3,2
    1290:	00300e93          	li	t4,3
    1294:	00054583          	lbu	a1,0(a0)
    1298:	01463793          	sltiu	a5,a2,20
    129c:	0017c793          	xori	a5,a5,1
    12a0:	00058a63          	beqz	a1,12b4 <canMove+0x74>
    12a4:	0a079663          	bnez	a5,1350 <canMove+0x110>
    12a8:	0a069463          	bnez	a3,1350 <canMove+0x110>
    12ac:	00074583          	lbu	a1,0(a4)
    12b0:	0a059063          	bnez	a1,1350 <canMove+0x110>
    12b4:	06688663          	beq	a7,t1,1320 <canMove+0xe0>
    12b8:	00154583          	lbu	a1,1(a0)
    12bc:	00058e63          	beqz	a1,12d8 <canMove+0x98>
    12c0:	00180593          	addi	a1,a6,1
    12c4:	00a5b593          	sltiu	a1,a1,10
    12c8:	08058463          	beqz	a1,1350 <canMove+0x110>
    12cc:	08079263          	bnez	a5,1350 <canMove+0x110>
    12d0:	00174583          	lbu	a1,1(a4)
    12d4:	06059e63          	bnez	a1,1350 <canMove+0x110>
    12d8:	05c88463          	beq	a7,t3,1320 <canMove+0xe0>
    12dc:	00254583          	lbu	a1,2(a0)
    12e0:	00058e63          	beqz	a1,12fc <canMove+0xbc>
    12e4:	00280593          	addi	a1,a6,2
    12e8:	00a5b593          	sltiu	a1,a1,10
    12ec:	06058263          	beqz	a1,1350 <canMove+0x110>
    12f0:	06079063          	bnez	a5,1350 <canMove+0x110>
    12f4:	00274583          	lbu	a1,2(a4)
    12f8:	04059c63          	bnez	a1,1350 <canMove+0x110>
    12fc:	03d88263          	beq	a7,t4,1320 <canMove+0xe0>
    1300:	00354583          	lbu	a1,3(a0)
    1304:	00058e63          	beqz	a1,1320 <canMove+0xe0>
    1308:	00380593          	addi	a1,a6,3
    130c:	00a5b593          	sltiu	a1,a1,10
    1310:	04058063          	beqz	a1,1350 <canMove+0x110>
    1314:	02079e63          	bnez	a5,1350 <canMove+0x110>
    1318:	00374783          	lbu	a5,3(a4)
    131c:	02079a63          	bnez	a5,1350 <canMove+0x110>
    1320:	00160613          	addi	a2,a2,1
    1324:	00450513          	addi	a0,a0,4
    1328:	00a70713          	addi	a4,a4,10
    132c:	f7e614e3          	bne	a2,t5,1294 <canMove+0x54>
    1330:	00100513          	li	a0,1
    1334:	00008067          	ret
    1338:	00100793          	li	a5,1
    133c:	00f58e63          	beq	a1,a5,1358 <canMove+0x118>
    1340:	ffe58593          	addi	a1,a1,-2
    1344:	0015b593          	seqz	a1,a1
    1348:	00b60633          	add	a2,a2,a1
    134c:	f05ff06f          	j	1250 <canMove+0x10>
    1350:	00000513          	li	a0,0
    1354:	00008067          	ret
    1358:	00b80833          	add	a6,a6,a1
    135c:	ef5ff06f          	j	1250 <canMove+0x10>

00001360 <moveCurrent>:
    1360:	fe010113          	addi	sp,sp,-32
    1364:	00812c23          	sw	s0,24(sp)
    1368:	00112e23          	sw	ra,28(sp)
    136c:	00050413          	mv	s0,a0
    1370:	00b12623          	sw	a1,12(sp)
    1374:	ecdff0ef          	jal	1240 <canMove>
    1378:	00050c63          	beqz	a0,1390 <moveCurrent+0x30>
    137c:	00c12583          	lw	a1,12(sp)
    1380:	02059063          	bnez	a1,13a0 <moveCurrent+0x40>
    1384:	00442783          	lw	a5,4(s0)
    1388:	fff78793          	addi	a5,a5,-1
    138c:	00f42223          	sw	a5,4(s0)
    1390:	01c12083          	lw	ra,28(sp)
    1394:	01812403          	lw	s0,24(sp)
    1398:	02010113          	addi	sp,sp,32
    139c:	00008067          	ret
    13a0:	00100e13          	li	t3,1
    13a4:	03c59063          	bne	a1,t3,13c4 <moveCurrent+0x64>
    13a8:	00442783          	lw	a5,4(s0)
    13ac:	01c12083          	lw	ra,28(sp)
    13b0:	00b787b3          	add	a5,a5,a1
    13b4:	00f42223          	sw	a5,4(s0)
    13b8:	01812403          	lw	s0,24(sp)
    13bc:	02010113          	addi	sp,sp,32
    13c0:	00008067          	ret
    13c4:	00200793          	li	a5,2
    13c8:	fcf594e3          	bne	a1,a5,1390 <moveCurrent+0x30>
    13cc:	00442783          	lw	a5,4(s0)
    13d0:	00042503          	lw	a0,0(s0)
    13d4:	000028b7          	lui	a7,0x2
    13d8:	00b783b3          	add	t2,a5,a1
    13dc:	00251713          	slli	a4,a0,0x2
    13e0:	00a70733          	add	a4,a4,a0
    13e4:	00a3b393          	sltiu	t2,t2,10
    13e8:	40a88893          	addi	a7,a7,1034 # 240a <board+0xa>
    13ec:	00378693          	addi	a3,a5,3
    13f0:	00178293          	addi	t0,a5,1
    13f4:	00171713          	slli	a4,a4,0x1
    13f8:	00f888b3          	add	a7,a7,a5
    13fc:	00912a23          	sw	s1,20(sp)
    1400:	0013c493          	xori	s1,t2,1
    1404:	00842383          	lw	t2,8(s0)
    1408:	00e888b3          	add	a7,a7,a4
    140c:	00a2b293          	sltiu	t0,t0,10
    1410:	00a6b713          	sltiu	a4,a3,10
    1414:	00a7b793          	sltiu	a5,a5,10
    1418:	01212823          	sw	s2,16(sp)
    141c:	00150513          	addi	a0,a0,1
    1420:	00174913          	xori	s2,a4,1
    1424:	0012c293          	xori	t0,t0,1
    1428:	0017cf13          	xori	t5,a5,1
    142c:	00300f93          	li	t6,3
    1430:	0003a683          	lw	a3,0(t2)
    1434:	08d05c63          	blez	a3,14cc <moveCurrent+0x16c>
    1438:	00c40713          	addi	a4,s0,12
    143c:	00a68eb3          	add	t4,a3,a0
    1440:	00088613          	mv	a2,a7
    1444:	00050813          	mv	a6,a0
    1448:	00074303          	lbu	t1,0(a4)
    144c:	01483793          	sltiu	a5,a6,20
    1450:	0017c793          	xori	a5,a5,1
    1454:	00030a63          	beqz	t1,1468 <moveCurrent+0x108>
    1458:	08079263          	bnez	a5,14dc <moveCurrent+0x17c>
    145c:	080f1063          	bnez	t5,14dc <moveCurrent+0x17c>
    1460:	00064303          	lbu	t1,0(a2)
    1464:	06031c63          	bnez	t1,14dc <moveCurrent+0x17c>
    1468:	05c68a63          	beq	a3,t3,14bc <moveCurrent+0x15c>
    146c:	00174303          	lbu	t1,1(a4)
    1470:	00030a63          	beqz	t1,1484 <moveCurrent+0x124>
    1474:	06029463          	bnez	t0,14dc <moveCurrent+0x17c>
    1478:	06079263          	bnez	a5,14dc <moveCurrent+0x17c>
    147c:	00164303          	lbu	t1,1(a2)
    1480:	04031e63          	bnez	t1,14dc <moveCurrent+0x17c>
    1484:	02b68c63          	beq	a3,a1,14bc <moveCurrent+0x15c>
    1488:	00274303          	lbu	t1,2(a4)
    148c:	00030a63          	beqz	t1,14a0 <moveCurrent+0x140>
    1490:	04049663          	bnez	s1,14dc <moveCurrent+0x17c>
    1494:	04079463          	bnez	a5,14dc <moveCurrent+0x17c>
    1498:	00264303          	lbu	t1,2(a2)
    149c:	04031063          	bnez	t1,14dc <moveCurrent+0x17c>
    14a0:	01f68e63          	beq	a3,t6,14bc <moveCurrent+0x15c>
    14a4:	00374303          	lbu	t1,3(a4)
    14a8:	00030a63          	beqz	t1,14bc <moveCurrent+0x15c>
    14ac:	02091863          	bnez	s2,14dc <moveCurrent+0x17c>
    14b0:	02079663          	bnez	a5,14dc <moveCurrent+0x17c>
    14b4:	00364783          	lbu	a5,3(a2)
    14b8:	02079263          	bnez	a5,14dc <moveCurrent+0x17c>
    14bc:	00180813          	addi	a6,a6,1
    14c0:	00470713          	addi	a4,a4,4
    14c4:	00a60613          	addi	a2,a2,10
    14c8:	f9d810e3          	bne	a6,t4,1448 <moveCurrent+0xe8>
    14cc:	00a42023          	sw	a0,0(s0)
    14d0:	00a88893          	addi	a7,a7,10
    14d4:	00150513          	addi	a0,a0,1
    14d8:	f59ff06f          	j	1430 <moveCurrent+0xd0>
    14dc:	01c12083          	lw	ra,28(sp)
    14e0:	01812403          	lw	s0,24(sp)
    14e4:	01412483          	lw	s1,20(sp)
    14e8:	01012903          	lw	s2,16(sp)
    14ec:	02010113          	addi	sp,sp,32
    14f0:	00008067          	ret

000014f4 <settlePiece>:
    14f4:	00852783          	lw	a5,8(a0)
    14f8:	0007a683          	lw	a3,0(a5)
    14fc:	10d05a63          	blez	a3,1610 <settlePiece+0x11c>
    1500:	00c54603          	lbu	a2,12(a0)
    1504:	00100713          	li	a4,1
    1508:	00c50793          	addi	a5,a0,12
    150c:	1ae60063          	beq	a2,a4,16ac <settlePiece+0x1b8>
    1510:	00000713          	li	a4,0
    1514:	00100613          	li	a2,1
    1518:	02c68c63          	beq	a3,a2,1550 <settlePiece+0x5c>
    151c:	0017c583          	lbu	a1,1(a5)
    1520:	00100613          	li	a2,1
    1524:	0ac58063          	beq	a1,a2,15c4 <settlePiece+0xd0>
    1528:	00200613          	li	a2,2
    152c:	02c68263          	beq	a3,a2,1550 <settlePiece+0x5c>
    1530:	0027c583          	lbu	a1,2(a5)
    1534:	00100613          	li	a2,1
    1538:	0cc58e63          	beq	a1,a2,1614 <settlePiece+0x120>
    153c:	00300613          	li	a2,3
    1540:	00c68863          	beq	a3,a2,1550 <settlePiece+0x5c>
    1544:	0037c583          	lbu	a1,3(a5)
    1548:	00100613          	li	a2,1
    154c:	10c58a63          	beq	a1,a2,1660 <settlePiece+0x16c>
    1550:	00170713          	addi	a4,a4,1
    1554:	0ae68e63          	beq	a3,a4,1610 <settlePiece+0x11c>
    1558:	0047c583          	lbu	a1,4(a5)
    155c:	00100613          	li	a2,1
    1560:	00478793          	addi	a5,a5,4
    1564:	00c58c63          	beq	a1,a2,157c <settlePiece+0x88>
    1568:	fac69ae3          	bne	a3,a2,151c <settlePiece+0x28>
    156c:	0047c583          	lbu	a1,4(a5)
    1570:	00478793          	addi	a5,a5,4
    1574:	00170713          	addi	a4,a4,1
    1578:	fec598e3          	bne	a1,a2,1568 <settlePiece+0x74>
    157c:	00052603          	lw	a2,0(a0)
    1580:	00452803          	lw	a6,4(a0)
    1584:	00c70633          	add	a2,a4,a2
    1588:	01463593          	sltiu	a1,a2,20
    158c:	f80584e3          	beqz	a1,1514 <settlePiece+0x20>
    1590:	00a83593          	sltiu	a1,a6,10
    1594:	f80580e3          	beqz	a1,1514 <settlePiece+0x20>
    1598:	00852883          	lw	a7,8(a0)
    159c:	00261593          	slli	a1,a2,0x2
    15a0:	00c585b3          	add	a1,a1,a2
    15a4:	00002637          	lui	a2,0x2
    15a8:	0148a883          	lw	a7,20(a7)
    15ac:	00159593          	slli	a1,a1,0x1
    15b0:	40060613          	addi	a2,a2,1024 # 2400 <board>
    15b4:	00b60633          	add	a2,a2,a1
    15b8:	01060633          	add	a2,a2,a6
    15bc:	01160023          	sb	a7,0(a2)
    15c0:	f55ff06f          	j	1514 <settlePiece+0x20>
    15c4:	00052603          	lw	a2,0(a0)
    15c8:	00452583          	lw	a1,4(a0)
    15cc:	00c70633          	add	a2,a4,a2
    15d0:	01463813          	sltiu	a6,a2,20
    15d4:	00158593          	addi	a1,a1,1
    15d8:	f40808e3          	beqz	a6,1528 <settlePiece+0x34>
    15dc:	00a5b813          	sltiu	a6,a1,10
    15e0:	f40804e3          	beqz	a6,1528 <settlePiece+0x34>
    15e4:	00852883          	lw	a7,8(a0)
    15e8:	00261813          	slli	a6,a2,0x2
    15ec:	00c80833          	add	a6,a6,a2
    15f0:	00002637          	lui	a2,0x2
    15f4:	0148a883          	lw	a7,20(a7)
    15f8:	00181813          	slli	a6,a6,0x1
    15fc:	40060613          	addi	a2,a2,1024 # 2400 <board>
    1600:	01060633          	add	a2,a2,a6
    1604:	00b60633          	add	a2,a2,a1
    1608:	01160023          	sb	a7,0(a2)
    160c:	f1dff06f          	j	1528 <settlePiece+0x34>
    1610:	00008067          	ret
    1614:	00052603          	lw	a2,0(a0)
    1618:	00452583          	lw	a1,4(a0)
    161c:	00c70633          	add	a2,a4,a2
    1620:	01463813          	sltiu	a6,a2,20
    1624:	00258593          	addi	a1,a1,2
    1628:	f0080ae3          	beqz	a6,153c <settlePiece+0x48>
    162c:	00a5b813          	sltiu	a6,a1,10
    1630:	f00806e3          	beqz	a6,153c <settlePiece+0x48>
    1634:	00852883          	lw	a7,8(a0)
    1638:	00261813          	slli	a6,a2,0x2
    163c:	00c80833          	add	a6,a6,a2
    1640:	00002637          	lui	a2,0x2
    1644:	0148a883          	lw	a7,20(a7)
    1648:	00181813          	slli	a6,a6,0x1
    164c:	40060613          	addi	a2,a2,1024 # 2400 <board>
    1650:	01060633          	add	a2,a2,a6
    1654:	00b60633          	add	a2,a2,a1
    1658:	01160023          	sb	a7,0(a2)
    165c:	ee1ff06f          	j	153c <settlePiece+0x48>
    1660:	00052603          	lw	a2,0(a0)
    1664:	00452583          	lw	a1,4(a0)
    1668:	00c70633          	add	a2,a4,a2
    166c:	01463813          	sltiu	a6,a2,20
    1670:	00358593          	addi	a1,a1,3
    1674:	ec080ee3          	beqz	a6,1550 <settlePiece+0x5c>
    1678:	00a5b813          	sltiu	a6,a1,10
    167c:	ec080ae3          	beqz	a6,1550 <settlePiece+0x5c>
    1680:	00852883          	lw	a7,8(a0)
    1684:	00261813          	slli	a6,a2,0x2
    1688:	00c80833          	add	a6,a6,a2
    168c:	00002637          	lui	a2,0x2
    1690:	0148a883          	lw	a7,20(a7)
    1694:	00181813          	slli	a6,a6,0x1
    1698:	40060613          	addi	a2,a2,1024 # 2400 <board>
    169c:	01060633          	add	a2,a2,a6
    16a0:	00b60633          	add	a2,a2,a1
    16a4:	01160023          	sb	a7,0(a2)
    16a8:	ea9ff06f          	j	1550 <settlePiece+0x5c>
    16ac:	00000713          	li	a4,0
    16b0:	ecdff06f          	j	157c <settlePiece+0x88>

000016b4 <Lineclear>:
    16b4:	000027b7          	lui	a5,0x2
    16b8:	40078713          	addi	a4,a5,1024 # 2400 <board>
    16bc:	00002f37          	lui	t5,0x2
    16c0:	01300693          	li	a3,19
    16c4:	510f2303          	lw	t1,1296(t5) # 2510 <totallinescleard>
    16c8:	0be70793          	addi	a5,a4,190
    16cc:	00068593          	mv	a1,a3
    16d0:	00000e93          	li	t4,0
    16d4:	00000893          	li	a7,0
    16d8:	fff00e13          	li	t3,-1
    16dc:	0640006f          	j	1740 <Lineclear+0x8c>
    16e0:	0017c503          	lbu	a0,1(a5)
    16e4:	06050263          	beqz	a0,1748 <Lineclear+0x94>
    16e8:	0027c503          	lbu	a0,2(a5)
    16ec:	04050e63          	beqz	a0,1748 <Lineclear+0x94>
    16f0:	0037c503          	lbu	a0,3(a5)
    16f4:	04050a63          	beqz	a0,1748 <Lineclear+0x94>
    16f8:	0047c503          	lbu	a0,4(a5)
    16fc:	04050663          	beqz	a0,1748 <Lineclear+0x94>
    1700:	0057c503          	lbu	a0,5(a5)
    1704:	04050263          	beqz	a0,1748 <Lineclear+0x94>
    1708:	0067c503          	lbu	a0,6(a5)
    170c:	02050e63          	beqz	a0,1748 <Lineclear+0x94>
    1710:	0077c503          	lbu	a0,7(a5)
    1714:	02050a63          	beqz	a0,1748 <Lineclear+0x94>
    1718:	0087c503          	lbu	a0,8(a5)
    171c:	02050663          	beqz	a0,1748 <Lineclear+0x94>
    1720:	0097c503          	lbu	a0,9(a5)
    1724:	02050263          	beqz	a0,1748 <Lineclear+0x94>
    1728:	fff68693          	addi	a3,a3,-1
    172c:	00188893          	addi	a7,a7,1
    1730:	00130313          	addi	t1,t1,1
    1734:	00100e93          	li	t4,1
    1738:	ff678793          	addi	a5,a5,-10
    173c:	03c68063          	beq	a3,t3,175c <Lineclear+0xa8>
    1740:	0007c603          	lbu	a2,0(a5)
    1744:	f8061ee3          	bnez	a2,16e0 <Lineclear+0x2c>
    1748:	08b69663          	bne	a3,a1,17d4 <Lineclear+0x120>
    174c:	fff58593          	addi	a1,a1,-1
    1750:	fff68693          	addi	a3,a3,-1
    1754:	ff678793          	addi	a5,a5,-10
    1758:	ffc694e3          	bne	a3,t3,1740 <Lineclear+0x8c>
    175c:	000e8463          	beqz	t4,1764 <Lineclear+0xb0>
    1760:	506f2823          	sw	t1,1296(t5)
    1764:	0405c463          	bltz	a1,17ac <Lineclear+0xf8>
    1768:	00259793          	slli	a5,a1,0x2
    176c:	00b787b3          	add	a5,a5,a1
    1770:	00179793          	slli	a5,a5,0x1
    1774:	000026b7          	lui	a3,0x2
    1778:	00f707b3          	add	a5,a4,a5
    177c:	3f668713          	addi	a4,a3,1014 # 23f6 <back_buffer+0x2>
    1780:	00078023          	sb	zero,0(a5)
    1784:	000780a3          	sb	zero,1(a5)
    1788:	00078123          	sb	zero,2(a5)
    178c:	000781a3          	sb	zero,3(a5)
    1790:	00078223          	sb	zero,4(a5)
    1794:	000782a3          	sb	zero,5(a5)
    1798:	00078323          	sb	zero,6(a5)
    179c:	000783a3          	sb	zero,7(a5)
    17a0:	00079423          	sh	zero,8(a5)
    17a4:	ff678793          	addi	a5,a5,-10
    17a8:	fcf71ce3          	bne	a4,a5,1780 <Lineclear+0xcc>
    17ac:	00100793          	li	a5,1
    17b0:	08f88063          	beq	a7,a5,1830 <Lineclear+0x17c>
    17b4:	00200793          	li	a5,2
    17b8:	08f88063          	beq	a7,a5,1838 <Lineclear+0x184>
    17bc:	00300793          	li	a5,3
    17c0:	08f88063          	beq	a7,a5,1840 <Lineclear+0x18c>
    17c4:	00400793          	li	a5,4
    17c8:	08f88063          	beq	a7,a5,1848 <Lineclear+0x194>
    17cc:	00000513          	li	a0,0
    17d0:	00008067          	ret
    17d4:	00259513          	slli	a0,a1,0x2
    17d8:	00b50533          	add	a0,a0,a1
    17dc:	00151513          	slli	a0,a0,0x1
    17e0:	00a70833          	add	a6,a4,a0
    17e4:	00c80023          	sb	a2,0(a6)
    17e8:	0017c603          	lbu	a2,1(a5)
    17ec:	fff58593          	addi	a1,a1,-1
    17f0:	00c800a3          	sb	a2,1(a6)
    17f4:	0027c603          	lbu	a2,2(a5)
    17f8:	00c80123          	sb	a2,2(a6)
    17fc:	0037c603          	lbu	a2,3(a5)
    1800:	00c801a3          	sb	a2,3(a6)
    1804:	0047c603          	lbu	a2,4(a5)
    1808:	00c80223          	sb	a2,4(a6)
    180c:	0057c603          	lbu	a2,5(a5)
    1810:	00c802a3          	sb	a2,5(a6)
    1814:	0067c603          	lbu	a2,6(a5)
    1818:	00c80323          	sb	a2,6(a6)
    181c:	0077c603          	lbu	a2,7(a5)
    1820:	00c803a3          	sb	a2,7(a6)
    1824:	0087d603          	lhu	a2,8(a5)
    1828:	00c81423          	sh	a2,8(a6)
    182c:	f25ff06f          	j	1750 <Lineclear+0x9c>
    1830:	06400513          	li	a0,100
    1834:	00008067          	ret
    1838:	19000513          	li	a0,400
    183c:	00008067          	ret
    1840:	38400513          	li	a0,900
    1844:	00008067          	ret
    1848:	7d000513          	li	a0,2000
    184c:	00008067          	ret

00001850 <rotate>:
    1850:	00852783          	lw	a5,8(a0)
    1854:	0007a603          	lw	a2,0(a5)
    1858:	32c05663          	blez	a2,1b84 <rotate+0x334>
    185c:	00c54883          	lbu	a7,12(a0)
    1860:	fe010113          	addi	sp,sp,-32
    1864:	00100793          	li	a5,1
    1868:	01110023          	sb	a7,0(sp)
    186c:	30f60863          	beq	a2,a5,1b7c <rotate+0x32c>
    1870:	00d54783          	lbu	a5,13(a0)
    1874:	00200713          	li	a4,2
    1878:	00f10223          	sb	a5,4(sp)
    187c:	30e60663          	beq	a2,a4,1b88 <rotate+0x338>
    1880:	00e54703          	lbu	a4,14(a0)
    1884:	00300793          	li	a5,3
    1888:	00e10423          	sb	a4,8(sp)
    188c:	34f60863          	beq	a2,a5,1bdc <rotate+0x38c>
    1890:	01854783          	lbu	a5,24(a0)
    1894:	01f60713          	addi	a4,a2,31
    1898:	00f54303          	lbu	t1,15(a0)
    189c:	00f101a3          	sb	a5,3(sp)
    18a0:	01454783          	lbu	a5,20(a0)
    18a4:	01054803          	lbu	a6,16(a0)
    18a8:	002706b3          	add	a3,a4,sp
    18ac:	01154703          	lbu	a4,17(a0)
    18b0:	00f10123          	sb	a5,2(sp)
    18b4:	02060793          	addi	a5,a2,32
    18b8:	fe06c883          	lbu	a7,-32(a3)
    18bc:	01254283          	lbu	t0,18(a0)
    18c0:	01354f83          	lbu	t6,19(a0)
    18c4:	01554f03          	lbu	t5,21(a0)
    18c8:	01654e83          	lbu	t4,22(a0)
    18cc:	01754e03          	lbu	t3,23(a0)
    18d0:	002785b3          	add	a1,a5,sp
    18d4:	00610623          	sb	t1,12(sp)
    18d8:	010100a3          	sb	a6,1(sp)
    18dc:	01954303          	lbu	t1,25(a0)
    18e0:	01a54803          	lbu	a6,26(a0)
    18e4:	00e102a3          	sb	a4,5(sp)
    18e8:	01b54703          	lbu	a4,27(a0)
    18ec:	fde5c783          	lbu	a5,-34(a1)
    18f0:	01110823          	sb	a7,16(sp)
    18f4:	005104a3          	sb	t0,9(sp)
    18f8:	01f106a3          	sb	t6,13(sp)
    18fc:	01e10323          	sb	t5,6(sp)
    1900:	01d10523          	sb	t4,10(sp)
    1904:	01c10723          	sb	t3,14(sp)
    1908:	006103a3          	sb	t1,7(sp)
    190c:	010105a3          	sb	a6,11(sp)
    1910:	00e107a3          	sb	a4,15(sp)
    1914:	fdd5c703          	lbu	a4,-35(a1)
    1918:	00f108a3          	sb	a5,17(sp)
    191c:	00300793          	li	a5,3
    1920:	00e10923          	sb	a4,18(sp)
    1924:	00f60663          	beq	a2,a5,1930 <rotate+0xe0>
    1928:	fdc5c783          	lbu	a5,-36(a1)
    192c:	00f109a3          	sb	a5,19(sp)
    1930:	01e60713          	addi	a4,a2,30
    1934:	01d60793          	addi	a5,a2,29
    1938:	00270733          	add	a4,a4,sp
    193c:	002787b3          	add	a5,a5,sp
    1940:	fe46c803          	lbu	a6,-28(a3)
    1944:	fe474e03          	lbu	t3,-28(a4)
    1948:	fe47c303          	lbu	t1,-28(a5)
    194c:	01010a23          	sb	a6,20(sp)
    1950:	01c10aa3          	sb	t3,21(sp)
    1954:	00610b23          	sb	t1,22(sp)
    1958:	00300813          	li	a6,3
    195c:	2d060263          	beq	a2,a6,1c20 <rotate+0x3d0>
    1960:	00260833          	add	a6,a2,sp
    1964:	fe05cf03          	lbu	t5,-32(a1)
    1968:	00484e83          	lbu	t4,4(a6)
    196c:	00884e03          	lbu	t3,8(a6)
    1970:	fe86c303          	lbu	t1,-24(a3)
    1974:	fec6c803          	lbu	a6,-20(a3)
    1978:	fe874583          	lbu	a1,-24(a4)
    197c:	fec74683          	lbu	a3,-20(a4)
    1980:	fe87c703          	lbu	a4,-24(a5)
    1984:	fec7c783          	lbu	a5,-20(a5)
    1988:	01e10ba3          	sb	t5,23(sp)
    198c:	01d10da3          	sb	t4,27(sp)
    1990:	01c10fa3          	sb	t3,31(sp)
    1994:	00610c23          	sb	t1,24(sp)
    1998:	01010e23          	sb	a6,28(sp)
    199c:	00b10ca3          	sb	a1,25(sp)
    19a0:	00d10ea3          	sb	a3,29(sp)
    19a4:	00e10d23          	sb	a4,26(sp)
    19a8:	00f10f23          	sb	a5,30(sp)
    19ac:	01014783          	lbu	a5,16(sp)
    19b0:	01010693          	addi	a3,sp,16
    19b4:	00000593          	li	a1,0
    19b8:	04078263          	beqz	a5,19fc <rotate+0x1ac>
    19bc:	00052783          	lw	a5,0(a0)
    19c0:	00452703          	lw	a4,4(a0)
    19c4:	00f587b3          	add	a5,a1,a5
    19c8:	0147b813          	sltiu	a6,a5,20
    19cc:	18080863          	beqz	a6,1b5c <rotate+0x30c>
    19d0:	00a73813          	sltiu	a6,a4,10
    19d4:	18080463          	beqz	a6,1b5c <rotate+0x30c>
    19d8:	00279813          	slli	a6,a5,0x2
    19dc:	00f80833          	add	a6,a6,a5
    19e0:	000027b7          	lui	a5,0x2
    19e4:	00181813          	slli	a6,a6,0x1
    19e8:	40078793          	addi	a5,a5,1024 # 2400 <board>
    19ec:	010787b3          	add	a5,a5,a6
    19f0:	00e787b3          	add	a5,a5,a4
    19f4:	0007c783          	lbu	a5,0(a5)
    19f8:	16079263          	bnez	a5,1b5c <rotate+0x30c>
    19fc:	00100793          	li	a5,1
    1a00:	00200313          	li	t1,2
    1a04:	00300e13          	li	t3,3
    1a08:	24f60063          	beq	a2,a5,1c48 <rotate+0x3f8>
    1a0c:	0016c783          	lbu	a5,1(a3)
    1a10:	04078463          	beqz	a5,1a58 <rotate+0x208>
    1a14:	00052783          	lw	a5,0(a0)
    1a18:	00452703          	lw	a4,4(a0)
    1a1c:	00f587b3          	add	a5,a1,a5
    1a20:	0147b813          	sltiu	a6,a5,20
    1a24:	00170713          	addi	a4,a4,1
    1a28:	12080a63          	beqz	a6,1b5c <rotate+0x30c>
    1a2c:	00a73813          	sltiu	a6,a4,10
    1a30:	12080663          	beqz	a6,1b5c <rotate+0x30c>
    1a34:	00279813          	slli	a6,a5,0x2
    1a38:	00f80833          	add	a6,a6,a5
    1a3c:	000027b7          	lui	a5,0x2
    1a40:	00181813          	slli	a6,a6,0x1
    1a44:	40078793          	addi	a5,a5,1024 # 2400 <board>
    1a48:	010787b3          	add	a5,a5,a6
    1a4c:	00e787b3          	add	a5,a5,a4
    1a50:	0007c783          	lbu	a5,0(a5)
    1a54:	10079463          	bnez	a5,1b5c <rotate+0x30c>
    1a58:	10c35663          	bge	t1,a2,1b64 <rotate+0x314>
    1a5c:	0026c783          	lbu	a5,2(a3)
    1a60:	04078463          	beqz	a5,1aa8 <rotate+0x258>
    1a64:	00052783          	lw	a5,0(a0)
    1a68:	00452703          	lw	a4,4(a0)
    1a6c:	00f587b3          	add	a5,a1,a5
    1a70:	0147b813          	sltiu	a6,a5,20
    1a74:	00270713          	addi	a4,a4,2
    1a78:	0e080263          	beqz	a6,1b5c <rotate+0x30c>
    1a7c:	00a73813          	sltiu	a6,a4,10
    1a80:	0c080e63          	beqz	a6,1b5c <rotate+0x30c>
    1a84:	00279813          	slli	a6,a5,0x2
    1a88:	00f80833          	add	a6,a6,a5
    1a8c:	000027b7          	lui	a5,0x2
    1a90:	00181813          	slli	a6,a6,0x1
    1a94:	40078793          	addi	a5,a5,1024 # 2400 <board>
    1a98:	010787b3          	add	a5,a5,a6
    1a9c:	00e787b3          	add	a5,a5,a4
    1aa0:	0007c783          	lbu	a5,0(a5)
    1aa4:	0a079c63          	bnez	a5,1b5c <rotate+0x30c>
    1aa8:	0bc60e63          	beq	a2,t3,1b64 <rotate+0x314>
    1aac:	0036c783          	lbu	a5,3(a3)
    1ab0:	0a078a63          	beqz	a5,1b64 <rotate+0x314>
    1ab4:	00052783          	lw	a5,0(a0)
    1ab8:	00452703          	lw	a4,4(a0)
    1abc:	00f58833          	add	a6,a1,a5
    1ac0:	01483e93          	sltiu	t4,a6,20
    1ac4:	00370f13          	addi	t5,a4,3
    1ac8:	080e8a63          	beqz	t4,1b5c <rotate+0x30c>
    1acc:	00af3e93          	sltiu	t4,t5,10
    1ad0:	080e8663          	beqz	t4,1b5c <rotate+0x30c>
    1ad4:	00281e93          	slli	t4,a6,0x2
    1ad8:	010e8eb3          	add	t4,t4,a6
    1adc:	00002837          	lui	a6,0x2
    1ae0:	001e9e93          	slli	t4,t4,0x1
    1ae4:	40080813          	addi	a6,a6,1024 # 2400 <board>
    1ae8:	01d80833          	add	a6,a6,t4
    1aec:	01e80833          	add	a6,a6,t5
    1af0:	00084803          	lbu	a6,0(a6)
    1af4:	06081463          	bnez	a6,1b5c <rotate+0x30c>
    1af8:	00158593          	addi	a1,a1,1
    1afc:	00468693          	addi	a3,a3,4
    1b00:	00b60863          	beq	a2,a1,1b10 <rotate+0x2c0>
    1b04:	0006c803          	lbu	a6,0(a3)
    1b08:	ea081ee3          	bnez	a6,19c4 <rotate+0x174>
    1b0c:	f01ff06f          	j	1a0c <rotate+0x1bc>
    1b10:	01150623          	sb	a7,12(a0)
    1b14:	00100793          	li	a5,1
    1b18:	04f60263          	beq	a2,a5,1b5c <rotate+0x30c>
    1b1c:	01114703          	lbu	a4,17(sp)
    1b20:	00200793          	li	a5,2
    1b24:	00e506a3          	sb	a4,13(a0)
    1b28:	10f60a63          	beq	a2,a5,1c3c <rotate+0x3ec>
    1b2c:	01214703          	lbu	a4,18(sp)
    1b30:	00300793          	li	a5,3
    1b34:	00e50723          	sb	a4,14(a0)
    1b38:	08f60063          	beq	a2,a5,1bb8 <rotate+0x368>
    1b3c:	01c12603          	lw	a2,28(sp)
    1b40:	01314683          	lbu	a3,19(sp)
    1b44:	01412703          	lw	a4,20(sp)
    1b48:	01812783          	lw	a5,24(sp)
    1b4c:	00c52c23          	sw	a2,24(a0)
    1b50:	00d507a3          	sb	a3,15(a0)
    1b54:	00e52823          	sw	a4,16(a0)
    1b58:	00f52a23          	sw	a5,20(a0)
    1b5c:	02010113          	addi	sp,sp,32
    1b60:	00008067          	ret
    1b64:	00158593          	addi	a1,a1,1
    1b68:	00468693          	addi	a3,a3,4
    1b6c:	fab602e3          	beq	a2,a1,1b10 <rotate+0x2c0>
    1b70:	0006c783          	lbu	a5,0(a3)
    1b74:	e40794e3          	bnez	a5,19bc <rotate+0x16c>
    1b78:	e95ff06f          	j	1a0c <rotate+0x1bc>
    1b7c:	01110823          	sb	a7,16(sp)
    1b80:	e2dff06f          	j	19ac <rotate+0x15c>
    1b84:	00008067          	ret
    1b88:	01054883          	lbu	a7,16(a0)
    1b8c:	00f10aa3          	sb	a5,21(sp)
    1b90:	01154683          	lbu	a3,17(a0)
    1b94:	011100a3          	sb	a7,1(sp)
    1b98:	00015783          	lhu	a5,0(sp)
    1b9c:	00d102a3          	sb	a3,5(sp)
    1ba0:	00d10a23          	sb	a3,20(sp)
    1ba4:	0087d713          	srli	a4,a5,0x8
    1ba8:	00879793          	slli	a5,a5,0x8
    1bac:	00f707b3          	add	a5,a4,a5
    1bb0:	00f11823          	sh	a5,16(sp)
    1bb4:	df9ff06f          	j	19ac <rotate+0x15c>
    1bb8:	01415603          	lhu	a2,20(sp)
    1bbc:	01614683          	lbu	a3,22(sp)
    1bc0:	01815703          	lhu	a4,24(sp)
    1bc4:	01a14783          	lbu	a5,26(sp)
    1bc8:	00c51823          	sh	a2,16(a0)
    1bcc:	00d50923          	sb	a3,18(a0)
    1bd0:	00e51a23          	sh	a4,20(a0)
    1bd4:	00f50b23          	sb	a5,22(a0)
    1bd8:	f85ff06f          	j	1b5c <rotate+0x30c>
    1bdc:	01454703          	lbu	a4,20(a0)
    1be0:	01554583          	lbu	a1,21(a0)
    1be4:	01654683          	lbu	a3,22(a0)
    1be8:	01054783          	lbu	a5,16(a0)
    1bec:	01154303          	lbu	t1,17(a0)
    1bf0:	01254803          	lbu	a6,18(a0)
    1bf4:	00b10323          	sb	a1,6(sp)
    1bf8:	00d10523          	sb	a3,10(sp)
    1bfc:	00070893          	mv	a7,a4
    1c00:	00e10123          	sb	a4,2(sp)
    1c04:	00e10823          	sb	a4,16(sp)
    1c08:	00f100a3          	sb	a5,1(sp)
    1c0c:	006102a3          	sb	t1,5(sp)
    1c10:	010104a3          	sb	a6,9(sp)
    1c14:	02310593          	addi	a1,sp,35
    1c18:	02210693          	addi	a3,sp,34
    1c1c:	cf9ff06f          	j	1914 <rotate+0xc4>
    1c20:	fe86c683          	lbu	a3,-24(a3)
    1c24:	00914703          	lbu	a4,9(sp)
    1c28:	00814783          	lbu	a5,8(sp)
    1c2c:	00d10c23          	sb	a3,24(sp)
    1c30:	00e10ca3          	sb	a4,25(sp)
    1c34:	00f10d23          	sb	a5,26(sp)
    1c38:	d75ff06f          	j	19ac <rotate+0x15c>
    1c3c:	01415783          	lhu	a5,20(sp)
    1c40:	00f51823          	sh	a5,16(a0)
    1c44:	f19ff06f          	j	1b5c <rotate+0x30c>
    1c48:	00158593          	addi	a1,a1,1
    1c4c:	00468693          	addi	a3,a3,4
    1c50:	ecc580e3          	beq	a1,a2,1b10 <rotate+0x2c0>
    1c54:	0006c783          	lbu	a5,0(a3)
    1c58:	d60792e3          	bnez	a5,19bc <rotate+0x16c>
    1c5c:	00158593          	addi	a1,a1,1
    1c60:	00468693          	addi	a3,a3,4
    1c64:	ff1ff06f          	j	1c54 <rotate+0x404>

00001c68 <scoring>:
    1c68:	00100793          	li	a5,1
    1c6c:	02f50263          	beq	a0,a5,1c90 <scoring+0x28>
    1c70:	00200793          	li	a5,2
    1c74:	02f50263          	beq	a0,a5,1c98 <scoring+0x30>
    1c78:	00300793          	li	a5,3
    1c7c:	02f50263          	beq	a0,a5,1ca0 <scoring+0x38>
    1c80:	00400793          	li	a5,4
    1c84:	02f50263          	beq	a0,a5,1ca8 <scoring+0x40>
    1c88:	00000513          	li	a0,0
    1c8c:	00008067          	ret
    1c90:	06400513          	li	a0,100
    1c94:	00008067          	ret
    1c98:	19000513          	li	a0,400
    1c9c:	00008067          	ret
    1ca0:	38400513          	li	a0,900
    1ca4:	00008067          	ret
    1ca8:	7d000513          	li	a0,2000
    1cac:	00008067          	ret

00001cb0 <level>:
    1cb0:	000027b7          	lui	a5,0x2
    1cb4:	5107a503          	lw	a0,1296(a5) # 2510 <totallinescleard>
    1cb8:	666667b7          	lui	a5,0x66666
    1cbc:	66778793          	addi	a5,a5,1639 # 66666667 <_stack_end+0x66563f73>
    1cc0:	02f517b3          	mulh	a5,a0,a5
    1cc4:	41f55513          	srai	a0,a0,0x1f
    1cc8:	4027d793          	srai	a5,a5,0x2
    1ccc:	40a78533          	sub	a0,a5,a0
    1cd0:	00008067          	ret

00001cd4 <get_btn>:
    1cd4:	ff010113          	addi	sp,sp,-16
    1cd8:	01212023          	sw	s2,0(sp)
    1cdc:	00002937          	lui	s2,0x2
    1ce0:	3fc92783          	lw	a5,1020(s2) # 23fc <button>
    1ce4:	00912223          	sw	s1,4(sp)
    1ce8:	00050493          	mv	s1,a0
    1cec:	00500513          	li	a0,5
    1cf0:	00812423          	sw	s0,8(sp)
    1cf4:	00112623          	sw	ra,12(sp)
    1cf8:	0007a403          	lw	s0,0(a5)
    1cfc:	f94fe0ef          	jal	490 <delay>
    1d00:	3fc92783          	lw	a5,1020(s2)
    1d04:	40945433          	sra	s0,s0,s1
    1d08:	00002737          	lui	a4,0x2
    1d0c:	0007a783          	lw	a5,0(a5)
    1d10:	4c870713          	addi	a4,a4,1224 # 24c8 <prevstate>
    1d14:	4097d7b3          	sra	a5,a5,s1
    1d18:	0017f793          	andi	a5,a5,1
    1d1c:	00f47533          	and	a0,s0,a5
    1d20:	00249493          	slli	s1,s1,0x2
    1d24:	00050863          	beqz	a0,1d34 <get_btn+0x60>
    1d28:	009706b3          	add	a3,a4,s1
    1d2c:	0006a503          	lw	a0,0(a3)
    1d30:	00153513          	seqz	a0,a0
    1d34:	00c12083          	lw	ra,12(sp)
    1d38:	00812403          	lw	s0,8(sp)
    1d3c:	00970733          	add	a4,a4,s1
    1d40:	00f72023          	sw	a5,0(a4)
    1d44:	00412483          	lw	s1,4(sp)
    1d48:	00012903          	lw	s2,0(sp)
    1d4c:	01010113          	addi	sp,sp,16
    1d50:	00008067          	ret

00001d54 <get_btn_held>:
    1d54:	000027b7          	lui	a5,0x2
    1d58:	3fc7a783          	lw	a5,1020(a5) # 23fc <button>
    1d5c:	00002737          	lui	a4,0x2
    1d60:	00251693          	slli	a3,a0,0x2
    1d64:	0007a783          	lw	a5,0(a5)
    1d68:	4c870713          	addi	a4,a4,1224 # 24c8 <prevstate>
    1d6c:	00d70733          	add	a4,a4,a3
    1d70:	40a7d533          	sra	a0,a5,a0
    1d74:	00157513          	andi	a0,a0,1
    1d78:	00a72023          	sw	a0,0(a4)
    1d7c:	00008067          	ret

00001d80 <clearScreen>:
    1d80:	00002537          	lui	a0,0x2
    1d84:	ff010113          	addi	sp,sp,-16
    1d88:	64c50513          	addi	a0,a0,1612 # 264c <pieces+0x134>
    1d8c:	00112623          	sw	ra,12(sp)
    1d90:	1b8000ef          	jal	1f48 <print>
    1d94:	00c12083          	lw	ra,12(sp)
    1d98:	00002537          	lui	a0,0x2
    1d9c:	65450513          	addi	a0,a0,1620 # 2654 <pieces+0x13c>
    1da0:	01010113          	addi	sp,sp,16
    1da4:	1a40006f          	j	1f48 <print>

00001da8 <main>:
    1da8:	fe010113          	addi	sp,sp,-32
    1dac:	00002537          	lui	a0,0x2
    1db0:	65850513          	addi	a0,a0,1624 # 2658 <pieces+0x140>
    1db4:	00812c23          	sw	s0,24(sp)
    1db8:	00002437          	lui	s0,0x2
    1dbc:	00112e23          	sw	ra,28(sp)
    1dc0:	00912a23          	sw	s1,20(sp)
    1dc4:	01212823          	sw	s2,16(sp)
    1dc8:	01312623          	sw	s3,12(sp)
    1dcc:	01412423          	sw	s4,8(sp)
    1dd0:	01512223          	sw	s5,4(sp)
    1dd4:	01612023          	sw	s6,0(sp)
    1dd8:	4dc40413          	addi	s0,s0,1244 # 24dc <current>
    1ddc:	16c000ef          	jal	1f48 <print>
    1de0:	ba0fe0ef          	jal	180 <timerinit>
    1de4:	fc8fe0ef          	jal	5ac <generateseed>
    1de8:	899fe0ef          	jal	680 <clearboard>
    1dec:	00040513          	mv	a0,s0
    1df0:	840ff0ef          	jal	e30 <spawnpiece>
    1df4:	00000a13          	li	s4,0
    1df8:	000029b7          	lui	s3,0x2
    1dfc:	00002937          	lui	s2,0x2
    1e00:	00002ab7          	lui	s5,0x2
    1e04:	000024b7          	lui	s1,0x2
    1e08:	00000513          	li	a0,0
    1e0c:	ec9ff0ef          	jal	1cd4 <get_btn>
    1e10:	06051463          	bnez	a0,1e78 <main+0xd0>
    1e14:	00100513          	li	a0,1
    1e18:	ebdff0ef          	jal	1cd4 <get_btn>
    1e1c:	06051a63          	bnez	a0,1e90 <main+0xe8>
    1e20:	00300513          	li	a0,3
    1e24:	eb1ff0ef          	jal	1cd4 <get_btn>
    1e28:	08051063          	bnez	a0,1ea8 <main+0x100>
    1e2c:	00200513          	li	a0,2
    1e30:	ea5ff0ef          	jal	1cd4 <get_btn>
    1e34:	08051663          	bnez	a0,1ec0 <main+0x118>
    1e38:	00400513          	li	a0,4
    1e3c:	f19ff0ef          	jal	1d54 <get_btn_held>
    1e40:	4ea9ac23          	sw	a0,1272(s3) # 24f8 <softdrop_active>
    1e44:	50892783          	lw	a5,1288(s2) # 2508 <tick>
    1e48:	08079a63          	bnez	a5,1edc <main+0x134>
    1e4c:	5044a783          	lw	a5,1284(s1) # 2504 <frames>
    1e50:	fa078ce3          	beqz	a5,1e08 <main+0x60>
    1e54:	5004a223          	sw	zero,1284(s1)
    1e58:	e59ff0ef          	jal	1cb0 <level>
    1e5c:	50aaaa23          	sw	a0,1300(s5) # 2514 <lvl>
    1e60:	000a0593          	mv	a1,s4
    1e64:	00040513          	mv	a0,s0
    1e68:	8edfe0ef          	jal	754 <draw_board>
    1e6c:	00000513          	li	a0,0
    1e70:	e65ff0ef          	jal	1cd4 <get_btn>
    1e74:	fa0500e3          	beqz	a0,1e14 <main+0x6c>
    1e78:	00040513          	mv	a0,s0
    1e7c:	00000593          	li	a1,0
    1e80:	ce0ff0ef          	jal	1360 <moveCurrent>
    1e84:	00100513          	li	a0,1
    1e88:	e4dff0ef          	jal	1cd4 <get_btn>
    1e8c:	f8050ae3          	beqz	a0,1e20 <main+0x78>
    1e90:	00040513          	mv	a0,s0
    1e94:	00100593          	li	a1,1
    1e98:	cc8ff0ef          	jal	1360 <moveCurrent>
    1e9c:	00300513          	li	a0,3
    1ea0:	e35ff0ef          	jal	1cd4 <get_btn>
    1ea4:	f80504e3          	beqz	a0,1e2c <main+0x84>
    1ea8:	00040513          	mv	a0,s0
    1eac:	00200593          	li	a1,2
    1eb0:	cb0ff0ef          	jal	1360 <moveCurrent>
    1eb4:	00200513          	li	a0,2
    1eb8:	e1dff0ef          	jal	1cd4 <get_btn>
    1ebc:	f6050ee3          	beqz	a0,1e38 <main+0x90>
    1ec0:	00040513          	mv	a0,s0
    1ec4:	98dff0ef          	jal	1850 <rotate>
    1ec8:	00400513          	li	a0,4
    1ecc:	e89ff0ef          	jal	1d54 <get_btn_held>
    1ed0:	4ea9ac23          	sw	a0,1272(s3)
    1ed4:	50892783          	lw	a5,1288(s2)
    1ed8:	f6078ae3          	beqz	a5,1e4c <main+0xa4>
    1edc:	00200593          	li	a1,2
    1ee0:	00040513          	mv	a0,s0
    1ee4:	50092423          	sw	zero,1288(s2)
    1ee8:	b58ff0ef          	jal	1240 <canMove>
    1eec:	00050a63          	beqz	a0,1f00 <main+0x158>
    1ef0:	00042783          	lw	a5,0(s0)
    1ef4:	00178793          	addi	a5,a5,1
    1ef8:	00f42023          	sw	a5,0(s0)
    1efc:	f51ff06f          	j	1e4c <main+0xa4>
    1f00:	00040513          	mv	a0,s0
    1f04:	df0ff0ef          	jal	14f4 <settlePiece>
    1f08:	514aab03          	lw	s6,1300(s5)
    1f0c:	fa8ff0ef          	jal	16b4 <Lineclear>
    1f10:	001b0b13          	addi	s6,s6,1
    1f14:	02ab0b33          	mul	s6,s6,a0
    1f18:	00040513          	mv	a0,s0
    1f1c:	016a0a33          	add	s4,s4,s6
    1f20:	f11fe0ef          	jal	e30 <spawnpiece>
    1f24:	f29ff06f          	j	1e4c <main+0xa4>

00001f28 <printc>:
    1f28:	04000737          	lui	a4,0x4000
    1f2c:	04470713          	addi	a4,a4,68 # 4000044 <_stack_end+0x3efd950>
    1f30:	000106b7          	lui	a3,0x10
    1f34:	00072783          	lw	a5,0(a4)
    1f38:	fed7eee3          	bltu	a5,a3,1f34 <printc+0xc>
    1f3c:	040007b7          	lui	a5,0x4000
    1f40:	04a7a023          	sw	a0,64(a5) # 4000040 <_stack_end+0x3efd94c>
    1f44:	00008067          	ret

00001f48 <print>:
    1f48:	00054603          	lbu	a2,0(a0)
    1f4c:	02060863          	beqz	a2,1f7c <print+0x34>
    1f50:	04000737          	lui	a4,0x4000
    1f54:	040005b7          	lui	a1,0x4000
    1f58:	04470713          	addi	a4,a4,68 # 4000044 <_stack_end+0x3efd950>
    1f5c:	04058593          	addi	a1,a1,64 # 4000040 <_stack_end+0x3efd94c>
    1f60:	000106b7          	lui	a3,0x10
    1f64:	00072783          	lw	a5,0(a4)
    1f68:	fed7eee3          	bltu	a5,a3,1f64 <print+0x1c>
    1f6c:	00c5a023          	sw	a2,0(a1)
    1f70:	00154603          	lbu	a2,1(a0)
    1f74:	00150513          	addi	a0,a0,1
    1f78:	fe0616e3          	bnez	a2,1f64 <print+0x1c>
    1f7c:	00008067          	ret

00001f80 <print_dec>:
    1f80:	3b9ad737          	lui	a4,0x3b9ad
    1f84:	040006b7          	lui	a3,0x4000
    1f88:	04000337          	lui	t1,0x4000
    1f8c:	ccccd8b7          	lui	a7,0xccccd
    1f90:	a0070713          	addi	a4,a4,-1536 # 3b9aca00 <_stack_end+0x3b8aa30c>
    1f94:	04468693          	addi	a3,a3,68 # 4000044 <_stack_end+0x3efd950>
    1f98:	04030313          	addi	t1,t1,64 # 4000040 <_stack_end+0x3efd94c>
    1f9c:	ccd88893          	addi	a7,a7,-819 # cccccccd <_stack_end+0xccbca5d9>
    1fa0:	00a00593          	li	a1,10
    1fa4:	00000793          	li	a5,0
    1fa8:	00010637          	lui	a2,0x10
    1fac:	04e57663          	bgeu	a0,a4,1ff8 <print_dec+0x78>
    1fb0:	00078813          	mv	a6,a5
    1fb4:	00000793          	li	a5,0
    1fb8:	04081063          	bnez	a6,1ff8 <print_dec+0x78>
    1fbc:	03173833          	mulhu	a6,a4,a7
    1fc0:	fff58593          	addi	a1,a1,-1
    1fc4:	02e57533          	remu	a0,a0,a4
    1fc8:	00385713          	srli	a4,a6,0x3
    1fcc:	fe0590e3          	bnez	a1,1fac <print_dec+0x2c>
    1fd0:	02079263          	bnez	a5,1ff4 <print_dec+0x74>
    1fd4:	04000737          	lui	a4,0x4000
    1fd8:	04470713          	addi	a4,a4,68 # 4000044 <_stack_end+0x3efd950>
    1fdc:	000106b7          	lui	a3,0x10
    1fe0:	00072783          	lw	a5,0(a4)
    1fe4:	fed7eee3          	bltu	a5,a3,1fe0 <print_dec+0x60>
    1fe8:	040007b7          	lui	a5,0x4000
    1fec:	03000713          	li	a4,48
    1ff0:	04e7a023          	sw	a4,64(a5) # 4000040 <_stack_end+0x3efd94c>
    1ff4:	00008067          	ret
    1ff8:	02e55833          	divu	a6,a0,a4
    1ffc:	03080813          	addi	a6,a6,48
    2000:	0ff87813          	zext.b	a6,a6
    2004:	0006a783          	lw	a5,0(a3) # 10000 <__global_pointer+0xd427>
    2008:	fec7eee3          	bltu	a5,a2,2004 <print_dec+0x84>
    200c:	01032023          	sw	a6,0(t1)
    2010:	00100793          	li	a5,1
    2014:	fa9ff06f          	j	1fbc <print_dec+0x3c>

00002018 <print_hex32>:
    2018:	04000737          	lui	a4,0x4000
    201c:	04470713          	addi	a4,a4,68 # 4000044 <_stack_end+0x3efd950>
    2020:	000106b7          	lui	a3,0x10
    2024:	00072783          	lw	a5,0(a4)
    2028:	fed7eee3          	bltu	a5,a3,2024 <print_hex32+0xc>
    202c:	040007b7          	lui	a5,0x4000
    2030:	03000693          	li	a3,48
    2034:	04d7a023          	sw	a3,64(a5) # 4000040 <_stack_end+0x3efd94c>
    2038:	04478713          	addi	a4,a5,68
    203c:	000106b7          	lui	a3,0x10
    2040:	00072783          	lw	a5,0(a4)
    2044:	fed7eee3          	bltu	a5,a3,2040 <print_hex32+0x28>
    2048:	04000837          	lui	a6,0x4000
    204c:	04080813          	addi	a6,a6,64 # 4000040 <_stack_end+0x3efd94c>
    2050:	07800793          	li	a5,120
    2054:	04000737          	lui	a4,0x4000
    2058:	00f82023          	sw	a5,0(a6)
    205c:	04470713          	addi	a4,a4,68 # 4000044 <_stack_end+0x3efd950>
    2060:	01c00613          	li	a2,28
    2064:	00900313          	li	t1,9
    2068:	000106b7          	lui	a3,0x10
    206c:	ffc00893          	li	a7,-4
    2070:	00c557b3          	srl	a5,a0,a2
    2074:	00f7f793          	andi	a5,a5,15
    2078:	03778593          	addi	a1,a5,55
    207c:	00f36463          	bltu	t1,a5,2084 <print_hex32+0x6c>
    2080:	03078593          	addi	a1,a5,48
    2084:	00072783          	lw	a5,0(a4)
    2088:	fed7eee3          	bltu	a5,a3,2084 <print_hex32+0x6c>
    208c:	00b82023          	sw	a1,0(a6)
    2090:	ffc60613          	addi	a2,a2,-4 # fffc <__global_pointer+0xd423>
    2094:	fd161ee3          	bne	a2,a7,2070 <print_hex32+0x58>
    2098:	00008067          	ret

0000209c <handle_exception>:
    209c:	00200793          	li	a5,2
    20a0:	1af80463          	beq	a6,a5,2248 <handle_exception+0x1ac>
    20a4:	00b00793          	li	a5,11
    20a8:	12f80663          	beq	a6,a5,21d4 <handle_exception+0x138>
    20ac:	14081c63          	bnez	a6,2204 <handle_exception+0x168>
    20b0:	00002637          	lui	a2,0x2
    20b4:	000028b7          	lui	a7,0x2
    20b8:	04000737          	lui	a4,0x4000
    20bc:	04000837          	lui	a6,0x4000
    20c0:	66c60613          	addi	a2,a2,1644 # 266c <pieces+0x154>
    20c4:	69b88893          	addi	a7,a7,1691 # 269b <pieces+0x183>
    20c8:	04470713          	addi	a4,a4,68 # 4000044 <_stack_end+0x3efd950>
    20cc:	04080813          	addi	a6,a6,64 # 4000040 <_stack_end+0x3efd94c>
    20d0:	00a00593          	li	a1,10
    20d4:	000106b7          	lui	a3,0x10
    20d8:	00072783          	lw	a5,0(a4)
    20dc:	fed7eee3          	bltu	a5,a3,20d8 <handle_exception+0x3c>
    20e0:	00b82023          	sw	a1,0(a6)
    20e4:	00160613          	addi	a2,a2,1
    20e8:	00064583          	lbu	a1,0(a2)
    20ec:	ff1616e3          	bne	a2,a7,20d8 <handle_exception+0x3c>
    20f0:	00002637          	lui	a2,0x2
    20f4:	000028b7          	lui	a7,0x2
    20f8:	04000737          	lui	a4,0x4000
    20fc:	04000837          	lui	a6,0x4000
    2100:	6e060613          	addi	a2,a2,1760 # 26e0 <pieces+0x1c8>
    2104:	6f388893          	addi	a7,a7,1779 # 26f3 <pieces+0x1db>
    2108:	04470713          	addi	a4,a4,68 # 4000044 <_stack_end+0x3efd950>
    210c:	04080813          	addi	a6,a6,64 # 4000040 <_stack_end+0x3efd94c>
    2110:	04500593          	li	a1,69
    2114:	000106b7          	lui	a3,0x10
    2118:	00072783          	lw	a5,0(a4)
    211c:	fed7eee3          	bltu	a5,a3,2118 <handle_exception+0x7c>
    2120:	00b82023          	sw	a1,0(a6)
    2124:	00160613          	addi	a2,a2,1
    2128:	00064583          	lbu	a1,0(a2)
    212c:	ff1616e3          	bne	a2,a7,2118 <handle_exception+0x7c>
    2130:	04000737          	lui	a4,0x4000
    2134:	04470713          	addi	a4,a4,68 # 4000044 <_stack_end+0x3efd950>
    2138:	000106b7          	lui	a3,0x10
    213c:	00072783          	lw	a5,0(a4)
    2140:	fed7eee3          	bltu	a5,a3,213c <handle_exception+0xa0>
    2144:	040007b7          	lui	a5,0x4000
    2148:	03000693          	li	a3,48
    214c:	04d7a023          	sw	a3,64(a5) # 4000040 <_stack_end+0x3efd94c>
    2150:	04478713          	addi	a4,a5,68
    2154:	000106b7          	lui	a3,0x10
    2158:	00072783          	lw	a5,0(a4)
    215c:	fed7eee3          	bltu	a5,a3,2158 <handle_exception+0xbc>
    2160:	04000837          	lui	a6,0x4000
    2164:	04080813          	addi	a6,a6,64 # 4000040 <_stack_end+0x3efd94c>
    2168:	07800793          	li	a5,120
    216c:	04000737          	lui	a4,0x4000
    2170:	00f82023          	sw	a5,0(a6)
    2174:	04470713          	addi	a4,a4,68 # 4000044 <_stack_end+0x3efd950>
    2178:	01c00613          	li	a2,28
    217c:	00900313          	li	t1,9
    2180:	000106b7          	lui	a3,0x10
    2184:	ffc00893          	li	a7,-4
    2188:	00c557b3          	srl	a5,a0,a2
    218c:	00f7f793          	andi	a5,a5,15
    2190:	03778593          	addi	a1,a5,55
    2194:	00f36463          	bltu	t1,a5,219c <handle_exception+0x100>
    2198:	03078593          	addi	a1,a5,48
    219c:	00072783          	lw	a5,0(a4)
    21a0:	fed7eee3          	bltu	a5,a3,219c <handle_exception+0x100>
    21a4:	00b82023          	sw	a1,0(a6)
    21a8:	ffc60613          	addi	a2,a2,-4
    21ac:	fd161ee3          	bne	a2,a7,2188 <handle_exception+0xec>
    21b0:	04000737          	lui	a4,0x4000
    21b4:	04470713          	addi	a4,a4,68 # 4000044 <_stack_end+0x3efd950>
    21b8:	000106b7          	lui	a3,0x10
    21bc:	00072783          	lw	a5,0(a4)
    21c0:	fed7eee3          	bltu	a5,a3,21bc <handle_exception+0x120>
    21c4:	040007b7          	lui	a5,0x4000
    21c8:	00a00713          	li	a4,10
    21cc:	04e7a023          	sw	a4,64(a5) # 4000040 <_stack_end+0x3efd94c>
    21d0:	0000006f          	j	21d0 <handle_exception+0x134>
    21d4:	00400793          	li	a5,4
    21d8:	0af88a63          	beq	a7,a5,228c <handle_exception+0x1f0>
    21dc:	0f089463          	bne	a7,a6,22c4 <handle_exception+0x228>
    21e0:	04000737          	lui	a4,0x4000
    21e4:	04470713          	addi	a4,a4,68 # 4000044 <_stack_end+0x3efd950>
    21e8:	000106b7          	lui	a3,0x10
    21ec:	00072783          	lw	a5,0(a4)
    21f0:	fed7eee3          	bltu	a5,a3,21ec <handle_exception+0x150>
    21f4:	040007b7          	lui	a5,0x4000
    21f8:	0ff57513          	zext.b	a0,a0
    21fc:	04a7a023          	sw	a0,64(a5) # 4000040 <_stack_end+0x3efd94c>
    2200:	00008067          	ret
    2204:	00002637          	lui	a2,0x2
    2208:	000028b7          	lui	a7,0x2
    220c:	04000737          	lui	a4,0x4000
    2210:	04000837          	lui	a6,0x4000
    2214:	6c060613          	addi	a2,a2,1728 # 26c0 <pieces+0x1a8>
    2218:	6dc88893          	addi	a7,a7,1756 # 26dc <pieces+0x1c4>
    221c:	04470713          	addi	a4,a4,68 # 4000044 <_stack_end+0x3efd950>
    2220:	04080813          	addi	a6,a6,64 # 4000040 <_stack_end+0x3efd94c>
    2224:	00a00593          	li	a1,10
    2228:	000106b7          	lui	a3,0x10
    222c:	00072783          	lw	a5,0(a4)
    2230:	fed7eee3          	bltu	a5,a3,222c <handle_exception+0x190>
    2234:	00b82023          	sw	a1,0(a6)
    2238:	00160613          	addi	a2,a2,1
    223c:	00064583          	lbu	a1,0(a2)
    2240:	ff1616e3          	bne	a2,a7,222c <handle_exception+0x190>
    2244:	eadff06f          	j	20f0 <handle_exception+0x54>
    2248:	00002637          	lui	a2,0x2
    224c:	000028b7          	lui	a7,0x2
    2250:	04000737          	lui	a4,0x4000
    2254:	04000837          	lui	a6,0x4000
    2258:	69c60613          	addi	a2,a2,1692 # 269c <pieces+0x184>
    225c:	6be88893          	addi	a7,a7,1726 # 26be <pieces+0x1a6>
    2260:	04470713          	addi	a4,a4,68 # 4000044 <_stack_end+0x3efd950>
    2264:	04080813          	addi	a6,a6,64 # 4000040 <_stack_end+0x3efd94c>
    2268:	00a00593          	li	a1,10
    226c:	000106b7          	lui	a3,0x10
    2270:	00072783          	lw	a5,0(a4)
    2274:	fed7eee3          	bltu	a5,a3,2270 <handle_exception+0x1d4>
    2278:	00b82023          	sw	a1,0(a6)
    227c:	00160613          	addi	a2,a2,1
    2280:	00064583          	lbu	a1,0(a2)
    2284:	ff1616e3          	bne	a2,a7,2270 <handle_exception+0x1d4>
    2288:	e69ff06f          	j	20f0 <handle_exception+0x54>
    228c:	00054603          	lbu	a2,0(a0)
    2290:	02060a63          	beqz	a2,22c4 <handle_exception+0x228>
    2294:	04000737          	lui	a4,0x4000
    2298:	040005b7          	lui	a1,0x4000
    229c:	04470713          	addi	a4,a4,68 # 4000044 <_stack_end+0x3efd950>
    22a0:	04058593          	addi	a1,a1,64 # 4000040 <_stack_end+0x3efd94c>
    22a4:	000106b7          	lui	a3,0x10
    22a8:	00072783          	lw	a5,0(a4)
    22ac:	fed7eee3          	bltu	a5,a3,22a8 <handle_exception+0x20c>
    22b0:	00c5a023          	sw	a2,0(a1)
    22b4:	00154603          	lbu	a2,1(a0)
    22b8:	00150513          	addi	a0,a0,1
    22bc:	fe0616e3          	bnez	a2,22a8 <handle_exception+0x20c>
    22c0:	00008067          	ret
    22c4:	00008067          	ret

000022c8 <nextprime>:
    22c8:	00200793          	li	a5,2
    22cc:	02a7c063          	blt	a5,a0,22ec <nextprime+0x24>
    22d0:	00100693          	li	a3,1
    22d4:	00a05863          	blez	a0,22e4 <nextprime+0x1c>
    22d8:	fff50793          	addi	a5,a0,-1
    22dc:	00f037b3          	snez	a5,a5
    22e0:	00278693          	addi	a3,a5,2
    22e4:	00068513          	mv	a0,a3
    22e8:	00008067          	ret
    22ec:	00150513          	addi	a0,a0,1
    22f0:	00156693          	ori	a3,a0,1
    22f4:	00300793          	li	a5,3
    22f8:	02f6e733          	rem	a4,a3,a5
    22fc:	4016d613          	srai	a2,a3,0x1
    2300:	00260613          	addi	a2,a2,2
    2304:	00178793          	addi	a5,a5,1
    2308:	00070a63          	beqz	a4,231c <nextprime+0x54>
    230c:	fcf60ce3          	beq	a2,a5,22e4 <nextprime+0x1c>
    2310:	02f6e733          	rem	a4,a3,a5
    2314:	00178793          	addi	a5,a5,1
    2318:	fe071ae3          	bnez	a4,230c <nextprime+0x44>
    231c:	00268693          	addi	a3,a3,2 # 10002 <__global_pointer+0xd429>
    2320:	fd5ff06f          	j	22f4 <nextprime+0x2c>

Disassembly of section .data:

00002324 <welcome_msg>:
    2324:	3d3d                	.insn	2, 0x3d3d
    2326:	3d3d                	.insn	2, 0x3d3d
    2328:	3d3d                	.insn	2, 0x3d3d
    232a:	3d3d                	.insn	2, 0x3d3d
    232c:	3d3d                	.insn	2, 0x3d3d
    232e:	3d3d                	.insn	2, 0x3d3d
    2330:	3d3d                	.insn	2, 0x3d3d
    2332:	3d3d                	.insn	2, 0x3d3d
    2334:	3d3d                	.insn	2, 0x3d3d
    2336:	3d3d                	.insn	2, 0x3d3d
    2338:	3d3d                	.insn	2, 0x3d3d
    233a:	3d3d                	.insn	2, 0x3d3d
    233c:	3d3d                	.insn	2, 0x3d3d
    233e:	3d3d                	.insn	2, 0x3d3d
    2340:	3d3d                	.insn	2, 0x3d3d
    2342:	3d3d                	.insn	2, 0x3d3d
    2344:	3d3d                	.insn	2, 0x3d3d
    2346:	3d3d                	.insn	2, 0x3d3d
    2348:	3d3d                	.insn	2, 0x3d3d
    234a:	3d3d                	.insn	2, 0x3d3d
    234c:	3d3d                	.insn	2, 0x3d3d
    234e:	3d3d                	.insn	2, 0x3d3d
    2350:	3d3d                	.insn	2, 0x3d3d
    2352:	3d3d                	.insn	2, 0x3d3d
    2354:	3d0a                	.insn	2, 0x3d0a
    2356:	3d3d                	.insn	2, 0x3d3d
    2358:	3d3d                	.insn	2, 0x3d3d
    235a:	5220                	.insn	2, 0x5220
    235c:	5349                	.insn	2, 0x5349
    235e:	20562d43          	.insn	4, 0x20562d43
    2362:	6f42                	.insn	2, 0x6f42
    2364:	552d746f          	jal	s0,d98b6 <__global_pointer+0xd6cdd>
    2368:	2070                	.insn	2, 0x2070
    236a:	7250                	.insn	2, 0x7250
    236c:	7365636f          	jal	t1,58aa2 <__global_pointer+0x55ec9>
    2370:	6f4e2073          	csrs	0x6f4,t3
    2374:	6f432077          	.insn	4, 0x6f432077
    2378:	706d                	.insn	2, 0x706d
    237a:	656c                	.insn	2, 0x656c
    237c:	6574                	.insn	2, 0x6574
    237e:	3d20                	.insn	2, 0x3d20
    2380:	3d3d                	.insn	2, 0x3d3d
    2382:	3d3d                	.insn	2, 0x3d3d
    2384:	0a3d                	.insn	2, 0x0a3d
    2386:	3d3d                	.insn	2, 0x3d3d
    2388:	3d3d                	.insn	2, 0x3d3d
    238a:	3d3d                	.insn	2, 0x3d3d
    238c:	3d3d                	.insn	2, 0x3d3d
    238e:	3d3d                	.insn	2, 0x3d3d
    2390:	3d3d                	.insn	2, 0x3d3d
    2392:	3d3d                	.insn	2, 0x3d3d
    2394:	3d3d                	.insn	2, 0x3d3d
    2396:	3d3d                	.insn	2, 0x3d3d
    2398:	3d3d                	.insn	2, 0x3d3d
    239a:	3d3d                	.insn	2, 0x3d3d
    239c:	3d3d                	.insn	2, 0x3d3d
    239e:	3d3d                	.insn	2, 0x3d3d
    23a0:	3d3d                	.insn	2, 0x3d3d
    23a2:	3d3d                	.insn	2, 0x3d3d
    23a4:	3d3d                	.insn	2, 0x3d3d
    23a6:	3d3d                	.insn	2, 0x3d3d
    23a8:	3d3d                	.insn	2, 0x3d3d
    23aa:	3d3d                	.insn	2, 0x3d3d
    23ac:	3d3d                	.insn	2, 0x3d3d
    23ae:	3d3d                	.insn	2, 0x3d3d
    23b0:	3d3d                	.insn	2, 0x3d3d
    23b2:	3d3d                	.insn	2, 0x3d3d
    23b4:	3d3d                	.insn	2, 0x3d3d
    23b6:	000a                	.insn	2, 0x000a

000023b8 <mytime>:
    23b8:	00005957          	.insn	4, 0x5957

000023bc <timstr>:
    23bc:	6574                	.insn	2, 0x6574
    23be:	7478                	.insn	2, 0x7478
    23c0:	6d20                	.insn	2, 0x6d20
    23c2:	2065726f          	jal	tp,595c8 <__global_pointer+0x569ef>
    23c6:	6574                	.insn	2, 0x6574
    23c8:	7478                	.insn	2, 0x7478
    23ca:	6c20                	.insn	2, 0x6c20
    23cc:	2073746f          	jal	s0,39dd2 <__global_pointer+0x371f9>
    23d0:	7420666f          	jal	a2,8b12 <__global_pointer+0x5f39>
    23d4:	7865                	.insn	2, 0x7865
    23d6:	0074                	.insn	2, 0x0074
    23d8:	0000                	.insn	2, 0x0000
	...

000023dc <softdrop_multiplier>:
    23dc:	0008                	.insn	2, 0x0008
	...

000023e0 <basetick>:
    23e0:	0030                	.insn	2, 0x0030
	...

000023e4 <control>:
    23e4:	0024                	.insn	2, 0x0024
    23e6:	0400                	.insn	2, 0x0400

000023e8 <status>:
    23e8:	0020                	.insn	2, 0x0020
    23ea:	0400                	.insn	2, 0x0400

000023ec <periodh>:
    23ec:	002c                	.insn	2, 0x002c
    23ee:	0400                	.insn	2, 0x0400

000023f0 <periodl>:
    23f0:	0028                	.insn	2, 0x0028
    23f2:	0400                	.insn	2, 0x0400

000023f4 <back_buffer>:
    23f4:	2c00                	.insn	2, 0x2c00
    23f6:	0801                	.insn	2, 0x0801

000023f8 <front_buffer>:
    23f8:	0000                	.insn	2, 0x0000
    23fa:	0800                	.insn	2, 0x0800

000023fc <button>:
    23fc:	00e0                	.insn	2, 0x00e0
    23fe:	0400                	.insn	2, 0x0400

Disassembly of section .rodata:

00002518 <pieces>:
    2518:	0002                	.insn	2, 0x0002
    251a:	0000                	.insn	2, 0x0000
    251c:	0101                	.insn	2, 0x0101
    251e:	0000                	.insn	2, 0x0000
    2520:	0101                	.insn	2, 0x0101
	...
    252a:	0000                	.insn	2, 0x0000
    252c:	00fc                	.insn	2, 0x00fc
    252e:	0000                	.insn	2, 0x0000
    2530:	00d8                	.insn	2, 0x00d8
    2532:	0000                	.insn	2, 0x0000
    2534:	00000003          	lb	zero,0(zero) # 0 <_isr_handler>
    2538:	0100                	.insn	2, 0x0100
    253a:	0000                	.insn	2, 0x0000
    253c:	0101                	.insn	2, 0x0101
    253e:	0001                	.insn	2, 0x0001
	...
    2548:	000000e3          	beqz	zero,2d48 <__global_pointer+0x16f>
    254c:	00c2                	.insn	2, 0x00c2
    254e:	0000                	.insn	2, 0x0000
    2550:	00000003          	lb	zero,0(zero) # 0 <_isr_handler>
    2554:	0101                	.insn	2, 0x0101
    2556:	0000                	.insn	2, 0x0000
    2558:	0100                	.insn	2, 0x0100
    255a:	0001                	.insn	2, 0x0001
	...
    2564:	001c                	.insn	2, 0x001c
    2566:	0000                	.insn	2, 0x0000
    2568:	0018                	.insn	2, 0x0018
    256a:	0000                	.insn	2, 0x0000
    256c:	00000003          	lb	zero,0(zero) # 0 <_isr_handler>
    2570:	0100                	.insn	2, 0x0100
    2572:	0001                	.insn	2, 0x0001
    2574:	0101                	.insn	2, 0x0101
	...
    257e:	0000                	.insn	2, 0x0000
    2580:	00e0                	.insn	2, 0x00e0
    2582:	0000                	.insn	2, 0x0000
    2584:	006e                	.insn	2, 0x006e
    2586:	0000                	.insn	2, 0x0000
    2588:	00000003          	lb	zero,0(zero) # 0 <_isr_handler>
    258c:	0001                	.insn	2, 0x0001
    258e:	0000                	.insn	2, 0x0000
    2590:	0101                	.insn	2, 0x0101
    2592:	0001                	.insn	2, 0x0001
	...
    259c:	00000003          	lb	zero,0(zero) # 0 <_isr_handler>
    25a0:	0002                	.insn	2, 0x0002
    25a2:	0000                	.insn	2, 0x0000
    25a4:	00000003          	lb	zero,0(zero) # 0 <_isr_handler>
    25a8:	0000                	.insn	2, 0x0000
    25aa:	0001                	.insn	2, 0x0001
    25ac:	0101                	.insn	2, 0x0101
    25ae:	0001                	.insn	2, 0x0001
	...
    25b8:	00e8                	.insn	2, 0x00e8
    25ba:	0000                	.insn	2, 0x0000
    25bc:	00d0                	.insn	2, 0x00d0
    25be:	0000                	.insn	2, 0x0000
    25c0:	0004                	.insn	2, 0x0004
    25c2:	0000                	.insn	2, 0x0000
    25c4:	0101                	.insn	2, 0x0101
    25c6:	0101                	.insn	2, 0x0101
	...
    25d4:	001f 0000 001a      	.insn	6, 0x001a0000001f
	...

Disassembly of section .rodata.str1.4:

000025dc <.rodata.str1.4>:
    25dc:	7250                	.insn	2, 0x7250
    25de:	7365                	.insn	2, 0x7365
    25e0:	6e612073          	csrs	0x6e6,sp
    25e4:	2079                	.insn	2, 0x2079
    25e6:	7562                	.insn	2, 0x7562
    25e8:	7474                	.insn	2, 0x7474
    25ea:	74206e6f          	jal	t3,8d2c <__global_pointer+0x6153>
    25ee:	7473206f          	j	35534 <__global_pointer+0x3295b>
    25f2:	7261                	.insn	2, 0x7261
    25f4:	2074                	.insn	2, 0x2074
    25f6:	6f66                	.insn	2, 0x6f66
    25f8:	2072                	.insn	2, 0x2072
    25fa:	6172                	.insn	2, 0x6172
    25fc:	646e                	.insn	2, 0x646e
    25fe:	73206d6f          	jal	s10,8d30 <__global_pointer+0x6157>
    2602:	6565                	.insn	2, 0x6565
    2604:	2e64                	.insn	2, 0x2e64
    2606:	2e2e                	.insn	2, 0x2e2e
    2608:	000a                	.insn	2, 0x000a
    260a:	0000                	.insn	2, 0x0000
    260c:	64656553          	.insn	4, 0x64656553
    2610:	6465                	.insn	2, 0x6465
    2612:	7720                	.insn	2, 0x7720
    2614:	7469                	.insn	2, 0x7469
    2616:	3a68                	.insn	2, 0x3a68
    2618:	0020                	.insn	2, 0x0020
    261a:	0000                	.insn	2, 0x0000
    261c:	000a                	.insn	2, 0x000a
    261e:	0000                	.insn	2, 0x0000
    2620:	470a                	.insn	2, 0x470a
    2622:	4d41                	.insn	2, 0x4d41
    2624:	2045                	.insn	2, 0x2045
    2626:	5245564f          	.insn	4, 0x5245564f
    262a:	0a21                	.insn	2, 0x0a21
    262c:	0000                	.insn	2, 0x0000
    262e:	0000                	.insn	2, 0x0000
    2630:	7250                	.insn	2, 0x7250
    2632:	7365                	.insn	2, 0x7365
    2634:	75422073          	csrs	0x754,tp
    2638:	7474                	.insn	2, 0x7474
    263a:	30206e6f          	jal	t3,893c <__global_pointer+0x5d63>
    263e:	7420                	.insn	2, 0x7420
    2640:	6552206f          	j	25494 <__global_pointer+0x228bb>
    2644:	72617473          	csrrci	s0,mhpmevent6h,2
    2648:	0a74                	.insn	2, 0x0a74
    264a:	0000                	.insn	2, 0x0000
    264c:	4a325b1b          	.insn	4, 0x4a325b1b
    2650:	0000                	.insn	2, 0x0000
    2652:	0000                	.insn	2, 0x0000
    2654:	00485b1b          	.insn	4, 0x00485b1b
    2658:	656d6147          	.insn	4, 0x656d6147
    265c:	7320                	.insn	2, 0x7320
    265e:	6174                	.insn	2, 0x6174
    2660:	7472                	.insn	2, 0x7472
    2662:	6e69                	.insn	2, 0x6e69
    2664:	2e2e2e67          	.insn	4, 0x2e2e2e67
    2668:	000a                	.insn	2, 0x000a
    266a:	0000                	.insn	2, 0x0000
    266c:	5b0a                	.insn	2, 0x5b0a
    266e:	5845                	.insn	2, 0x5845
    2670:	54504543          	.insn	4, 0x54504543
    2674:	4f49                	.insn	2, 0x4f49
    2676:	5d4e                	.insn	2, 0x5d4e
    2678:	4920                	.insn	2, 0x4920
    267a:	736e                	.insn	2, 0x736e
    267c:	7274                	.insn	2, 0x7274
    267e:	6375                	.insn	2, 0x6375
    2680:	6974                	.insn	2, 0x6974
    2682:	61206e6f          	jal	t3,8c94 <__global_pointer+0x60bb>
    2686:	6464                	.insn	2, 0x6464
    2688:	6572                	.insn	2, 0x6572
    268a:	6d207373          	csrrci	t1,0x6d2,0
    268e:	7369                	.insn	2, 0x7369
    2690:	6c61                	.insn	2, 0x6c61
    2692:	6769                	.insn	2, 0x6769
    2694:	6d6e                	.insn	2, 0x6d6e
    2696:	6e65                	.insn	2, 0x6e65
    2698:	2e74                	.insn	2, 0x2e74
    269a:	0020                	.insn	2, 0x0020
    269c:	5b0a                	.insn	2, 0x5b0a
    269e:	5845                	.insn	2, 0x5845
    26a0:	54504543          	.insn	4, 0x54504543
    26a4:	4f49                	.insn	2, 0x4f49
    26a6:	5d4e                	.insn	2, 0x5d4e
    26a8:	4920                	.insn	2, 0x4920
    26aa:	6c6c                	.insn	2, 0x6c6c
    26ac:	6765                	.insn	2, 0x6765
    26ae:	6c61                	.insn	2, 0x6c61
    26b0:	6920                	.insn	2, 0x6920
    26b2:	736e                	.insn	2, 0x736e
    26b4:	7274                	.insn	2, 0x7274
    26b6:	6375                	.insn	2, 0x6375
    26b8:	6974                	.insn	2, 0x6974
    26ba:	202e6e6f          	jal	t3,e88bc <__global_pointer+0xe5ce3>
    26be:	0000                	.insn	2, 0x0000
    26c0:	5b0a                	.insn	2, 0x5b0a
    26c2:	5845                	.insn	2, 0x5845
    26c4:	54504543          	.insn	4, 0x54504543
    26c8:	4f49                	.insn	2, 0x4f49
    26ca:	5d4e                	.insn	2, 0x5d4e
    26cc:	5520                	.insn	2, 0x5520
    26ce:	6b6e                	.insn	2, 0x6b6e
    26d0:	6f6e                	.insn	2, 0x6f6e
    26d2:	65206e77          	.insn	4, 0x65206e77
    26d6:	7272                	.insn	2, 0x7272
    26d8:	202e726f          	jal	tp,e98da <__global_pointer+0xe6d01>
    26dc:	0000                	.insn	2, 0x0000
    26de:	0000                	.insn	2, 0x0000
    26e0:	7845                	.insn	2, 0x7845
    26e2:	74706563          	bltu	zero,t2,2e2c <__global_pointer+0x253>
    26e6:	6f69                	.insn	2, 0x6f69
    26e8:	206e                	.insn	2, 0x206e
    26ea:	6441                	.insn	2, 0x6441
    26ec:	7264                	.insn	2, 0x7264
    26ee:	7365                	.insn	2, 0x7365
    26f0:	00203a73          	csrrc	s4,frm,zero

Disassembly of section .comment:

00000000 <.comment>:
   0:	3a434347          	.insn	4, 0x3a434347
   4:	2820                	.insn	2, 0x2820
   6:	33623167          	.insn	4, 0x33623167
   a:	3630                	.insn	2, 0x3630
   c:	3330                	.insn	2, 0x3330
   e:	6139                	.insn	2, 0x6139
  10:	2029                	.insn	2, 0x2029
  12:	3531                	.insn	2, 0x3531
  14:	312e                	.insn	2, 0x312e
  16:	302e                	.insn	2, 0x302e
	...

Disassembly of section .riscv.attributes:

00000000 <.riscv.attributes>:
   0:	3641                	.insn	2, 0x3641
   2:	0000                	.insn	2, 0x0000
   4:	7200                	.insn	2, 0x7200
   6:	7369                	.insn	2, 0x7369
   8:	01007663          	bgeu	zero,a6,14 <_isr_routine+0xc>
   c:	002c                	.insn	2, 0x002c
   e:	0000                	.insn	2, 0x0000
  10:	1004                	.insn	2, 0x1004
  12:	7205                	.insn	2, 0x7205
  14:	3376                	.insn	2, 0x3376
  16:	6932                	.insn	2, 0x6932
  18:	7032                	.insn	2, 0x7032
  1a:	5f31                	.insn	2, 0x5f31
  1c:	326d                	.insn	2, 0x326d
  1e:	3070                	.insn	2, 0x3070
  20:	7a5f 6369 7273      	.insn	6, 0x727363697a5f
  26:	7032                	.insn	2, 0x7032
  28:	5f30                	.insn	2, 0x5f30
  2a:	6d7a                	.insn	2, 0x6d7a
  2c:	756d                	.insn	2, 0x756d
  2e:	316c                	.insn	2, 0x316c
  30:	3070                	.insn	2, 0x3070
  32:	0800                	.insn	2, 0x0800
  34:	0a01                	.insn	2, 0x0a01
  36:	0b                	.byte	0x0b
