
main.elf:     file format elf32-littleriscv


Disassembly of section .text:

00000000 <_isr_handler>:
       0:	0080006f          	j	8 <_isr_routine>
       4:	1440006f          	j	148 <_start>

00000008 <_isr_routine>:
       8:	f8010113          	addi	sp,sp,-128
       c:	00112023          	sw	ra,0(sp)
      10:	00312423          	sw	gp,8(sp)
      14:	00412623          	sw	tp,12(sp)
      18:	00512823          	sw	t0,16(sp)
      1c:	00612a23          	sw	t1,20(sp)
      20:	00712c23          	sw	t2,24(sp)
      24:	00812e23          	sw	s0,28(sp)
      28:	02912023          	sw	s1,32(sp)
      2c:	02a12223          	sw	a0,36(sp)
      30:	02b12423          	sw	a1,40(sp)
      34:	02c12623          	sw	a2,44(sp)
      38:	02d12823          	sw	a3,48(sp)
      3c:	02e12a23          	sw	a4,52(sp)
      40:	02f12c23          	sw	a5,56(sp)
      44:	03012e23          	sw	a6,60(sp)
      48:	05112023          	sw	a7,64(sp)
      4c:	05212223          	sw	s2,68(sp)
      50:	05312423          	sw	s3,72(sp)
      54:	05412623          	sw	s4,76(sp)
      58:	05512823          	sw	s5,80(sp)
      5c:	05612a23          	sw	s6,84(sp)
      60:	05712c23          	sw	s7,88(sp)
      64:	05812e23          	sw	s8,92(sp)
      68:	07912023          	sw	s9,96(sp)
      6c:	07a12223          	sw	s10,100(sp)
      70:	07b12423          	sw	s11,104(sp)
      74:	07c12623          	sw	t3,108(sp)
      78:	07d12823          	sw	t4,112(sp)
      7c:	07e12a23          	sw	t5,116(sp)
      80:	07f12c23          	sw	t6,120(sp)
      84:	342022f3          	csrr	t0,mcause
      88:	80000337          	lui	t1,0x80000
      8c:	02536463          	bltu	t1,t0,b4 <external_irq>
      90:	00028833          	add	a6,t0,zero
      94:	00b00313          	li	t1,11
      98:	00628463          	beq	t0,t1,a0 <skip_init_args>
      9c:	34102573          	csrr	a0,mepc

000000a0 <skip_init_args>:
      a0:	075020ef          	jal	2914 <handle_exception>
      a4:	341022f3          	csrr	t0,mepc
      a8:	00428293          	addi	t0,t0,4
      ac:	34129073          	csrw	mepc,t0
      b0:	0180006f          	j	c8 <restore>

000000b4 <external_irq>:
      b4:	800002b7          	lui	t0,0x80000
      b8:	fff28293          	addi	t0,t0,-1 # 7fffffff <_stack_end+0x7fefd023>
      bc:	34202373          	csrr	t1,mcause
      c0:	0062f533          	and	a0,t0,t1
      c4:	100000ef          	jal	1c4 <handle_interrupt>

000000c8 <restore>:
      c8:	00012083          	lw	ra,0(sp)
      cc:	00812183          	lw	gp,8(sp)
      d0:	00c12203          	lw	tp,12(sp)
      d4:	01012283          	lw	t0,16(sp)
      d8:	01412303          	lw	t1,20(sp)
      dc:	01812383          	lw	t2,24(sp)
      e0:	01c12403          	lw	s0,28(sp)
      e4:	02012483          	lw	s1,32(sp)
      e8:	02412503          	lw	a0,36(sp)
      ec:	02812583          	lw	a1,40(sp)
      f0:	02c12603          	lw	a2,44(sp)
      f4:	03012683          	lw	a3,48(sp)
      f8:	03412703          	lw	a4,52(sp)
      fc:	03812783          	lw	a5,56(sp)
     100:	03c12803          	lw	a6,60(sp)
     104:	04012883          	lw	a7,64(sp)
     108:	04412903          	lw	s2,68(sp)
     10c:	04812983          	lw	s3,72(sp)
     110:	04c12a03          	lw	s4,76(sp)
     114:	05012a83          	lw	s5,80(sp)
     118:	05412b03          	lw	s6,84(sp)
     11c:	05812b83          	lw	s7,88(sp)
     120:	05c12c03          	lw	s8,92(sp)
     124:	06012c83          	lw	s9,96(sp)
     128:	06412d03          	lw	s10,100(sp)
     12c:	06812d83          	lw	s11,104(sp)
     130:	06c12e03          	lw	t3,108(sp)
     134:	07012e83          	lw	t4,112(sp)
     138:	07412f03          	lw	t5,116(sp)
     13c:	07812f83          	lw	t6,120(sp)
     140:	08010113          	addi	sp,sp,128
     144:	30200073          	mret

00000148 <_start>:
     148:	30401073          	csrw	mie,zero
     14c:	00103117          	auipc	sp,0x103
     150:	e9010113          	addi	sp,sp,-368 # 102fdc <_stack_end>
     154:	00003197          	auipc	gp,0x3
     158:	2fd18193          	addi	gp,gp,765 # 3451 <__global_pointer>
     15c:	00003517          	auipc	a0,0x3
     160:	a4050513          	addi	a0,a0,-1472 # 2b9c <welcome_msg>
     164:	00400893          	li	a7,4
     168:	00000073          	ecall
     16c:	4a8020ef          	jal	2614 <main>

00000170 <loop>:
     170:	0000006f          	j	170 <loop>

00000174 <enable_interrupt>:
     174:	30486073          	csrsi	mie,16
     178:	3001e073          	csrsi	mstatus,3
     17c:	00008067          	ret

00000180 <timerinit>:
     180:	000037b7          	lui	a5,0x3
     184:	c687a583          	lw	a1,-920(a5) # 2c68 <periodl>
     188:	00003737          	lui	a4,0x3
     18c:	c6472683          	lw	a3,-924(a4) # 2c64 <periodh>
     190:	000077b7          	lui	a5,0x7
     194:	00003737          	lui	a4,0x3
     198:	c6072703          	lw	a4,-928(a4) # 2c60 <status>
     19c:	53078793          	addi	a5,a5,1328 # 7530 <__global_pointer+0x40df>
     1a0:	00003637          	lui	a2,0x3
     1a4:	00f5a023          	sw	a5,0(a1)
     1a8:	c5c62783          	lw	a5,-932(a2) # 2c5c <control>
     1ac:	0006a023          	sw	zero,0(a3)
     1b0:	00100693          	li	a3,1
     1b4:	00d72023          	sw	a3,0(a4)
     1b8:	00700713          	li	a4,7
     1bc:	00e7a023          	sw	a4,0(a5)
     1c0:	fb5ff06f          	j	174 <enable_interrupt>

000001c4 <handle_interrupt>:
     1c4:	01000793          	li	a5,16
     1c8:	00f50463          	beq	a0,a5,1d0 <handle_interrupt+0xc>
     1cc:	00008067          	ret
     1d0:	00003737          	lui	a4,0x3
     1d4:	d7472783          	lw	a5,-652(a4) # 2d74 <framescountt>
     1d8:	000036b7          	lui	a3,0x3
     1dc:	c606a683          	lw	a3,-928(a3) # 2c60 <status>
     1e0:	00178793          	addi	a5,a5,1
     1e4:	d6f72a23          	sw	a5,-652(a4)
     1e8:	0006a783          	lw	a5,0(a3)
     1ec:	00003637          	lui	a2,0x3
     1f0:	000035b7          	lui	a1,0x3
     1f4:	ffe7f793          	andi	a5,a5,-2
     1f8:	00f6a023          	sw	a5,0(a3)
     1fc:	c5862783          	lw	a5,-936(a2) # 2c58 <basetick>
     200:	d705a683          	lw	a3,-656(a1) # 2d70 <softdrop_active>
     204:	00068a63          	beqz	a3,218 <handle_interrupt+0x54>
     208:	000036b7          	lui	a3,0x3
     20c:	c5862783          	lw	a5,-936(a2)
     210:	c546a683          	lw	a3,-940(a3) # 2c54 <softdrop_multiplier>
     214:	02d7c7b3          	div	a5,a5,a3
     218:	000036b7          	lui	a3,0x3
     21c:	d906a583          	lw	a1,-624(a3) # 2d90 <lvl>
     220:	00003537          	lui	a0,0x3
     224:	d7852603          	lw	a2,-648(a0) # 2d78 <timeoutcount>
     228:	00259693          	slli	a3,a1,0x2
     22c:	00b686b3          	add	a3,a3,a1
     230:	40d787b3          	sub	a5,a5,a3
     234:	00f64c63          	blt	a2,a5,24c <handle_interrupt+0x88>
     238:	000037b7          	lui	a5,0x3
     23c:	00100693          	li	a3,1
     240:	d6052c23          	sw	zero,-648(a0)
     244:	d8d7a023          	sw	a3,-640(a5) # 2d80 <tick>
     248:	00000613          	li	a2,0
     24c:	d7472683          	lw	a3,-652(a4)
     250:	01000793          	li	a5,16
     254:	f6f69ce3          	bne	a3,a5,1cc <handle_interrupt+0x8>
     258:	00160613          	addi	a2,a2,1
     25c:	000037b7          	lui	a5,0x3
     260:	00100693          	li	a3,1
     264:	d6c52c23          	sw	a2,-648(a0)
     268:	d6072a23          	sw	zero,-652(a4)
     26c:	d6d7ae23          	sw	a3,-644(a5) # 2d7c <frames>
     270:	00008067          	ret

00000274 <output_init>:
     274:	08013737          	lui	a4,0x8013
     278:	c0070713          	addi	a4,a4,-1024 # 8012c00 <_stack_end+0x7f0fc24>
     27c:	080007b7          	lui	a5,0x8000
     280:	00078023          	sb	zero,0(a5) # 8000000 <_stack_end+0x7efd024>
     284:	00178793          	addi	a5,a5,1
     288:	fee79ce3          	bne	a5,a4,280 <output_init+0xc>
     28c:	08026737          	lui	a4,0x8026
     290:	80070713          	addi	a4,a4,-2048 # 8025800 <_stack_end+0x7f22824>
     294:	00078023          	sb	zero,0(a5)
     298:	00178793          	addi	a5,a5,1
     29c:	fee79ce3          	bne	a5,a4,294 <output_init+0x20>
     2a0:	00008067          	ret

000002a4 <clear_backbuffer>:
     2a4:	000037b7          	lui	a5,0x3
     2a8:	c6c7a783          	lw	a5,-916(a5) # 2c6c <back_buffer>
     2ac:	00013737          	lui	a4,0x13
     2b0:	c0070713          	addi	a4,a4,-1024 # 12c00 <__global_pointer+0xf7af>
     2b4:	00e78733          	add	a4,a5,a4
     2b8:	00a78023          	sb	a0,0(a5)
     2bc:	00178793          	addi	a5,a5,1
     2c0:	fee79ce3          	bne	a5,a4,2b8 <clear_backbuffer+0x14>
     2c4:	00008067          	ret

000002c8 <draw_pixel>:
     2c8:	14053793          	sltiu	a5,a0,320
     2cc:	02078663          	beqz	a5,2f8 <draw_pixel+0x30>
     2d0:	0f05b793          	sltiu	a5,a1,240
     2d4:	02078263          	beqz	a5,2f8 <draw_pixel+0x30>
     2d8:	00259793          	slli	a5,a1,0x2
     2dc:	00003737          	lui	a4,0x3
     2e0:	c6c72703          	lw	a4,-916(a4) # 2c6c <back_buffer>
     2e4:	00b787b3          	add	a5,a5,a1
     2e8:	00679793          	slli	a5,a5,0x6
     2ec:	00a787b3          	add	a5,a5,a0
     2f0:	00f70733          	add	a4,a4,a5
     2f4:	00c70023          	sb	a2,0(a4)
     2f8:	00008067          	ret

000002fc <draw_tile>:
     2fc:	04d05a63          	blez	a3,350 <draw_tile+0x54>
     300:	04c05863          	blez	a2,350 <draw_tile+0x54>
     304:	000037b7          	lui	a5,0x3
     308:	c6c7a803          	lw	a6,-916(a5) # 2c6c <back_buffer>
     30c:	00b688b3          	add	a7,a3,a1
     310:	00259793          	slli	a5,a1,0x2
     314:	00b787b3          	add	a5,a5,a1
     318:	00a80533          	add	a0,a6,a0
     31c:	00289593          	slli	a1,a7,0x2
     320:	00a606b3          	add	a3,a2,a0
     324:	011585b3          	add	a1,a1,a7
     328:	00679613          	slli	a2,a5,0x6
     32c:	00c686b3          	add	a3,a3,a2
     330:	00659593          	slli	a1,a1,0x6
     334:	00c507b3          	add	a5,a0,a2
     338:	00e78023          	sb	a4,0(a5)
     33c:	00178793          	addi	a5,a5,1
     340:	fed79ce3          	bne	a5,a3,338 <draw_tile+0x3c>
     344:	14060613          	addi	a2,a2,320
     348:	14068693          	addi	a3,a3,320
     34c:	feb614e3          	bne	a2,a1,334 <draw_tile+0x38>
     350:	00008067          	ret

00000354 <swap_buffers_blocking>:
     354:	000036b7          	lui	a3,0x3
     358:	c6c6a603          	lw	a2,-916(a3) # 2c6c <back_buffer>
     35c:	04000737          	lui	a4,0x4000
     360:	10c70713          	addi	a4,a4,268 # 400010c <_stack_end+0x3efd130>
     364:	fec72c23          	sw	a2,-8(a4)
     368:	fe072a23          	sw	zero,-12(a4)
     36c:	00072783          	lw	a5,0(a4)
     370:	0017f793          	andi	a5,a5,1
     374:	fe079ce3          	bnez	a5,36c <swap_buffers_blocking+0x18>
     378:	000037b7          	lui	a5,0x3
     37c:	c707a703          	lw	a4,-912(a5) # 2c70 <front_buffer>
     380:	c6c7a823          	sw	a2,-912(a5)
     384:	c6e6a623          	sw	a4,-916(a3)
     388:	00008067          	ret

0000038c <get_vga_bpp_bytes>:
     38c:	040007b7          	lui	a5,0x4000
     390:	10c7a503          	lw	a0,268(a5) # 400010c <_stack_end+0x3efd130>
     394:	40455513          	srai	a0,a0,0x4
     398:	00f57513          	andi	a0,a0,15
     39c:	00008067          	ret

000003a0 <get_vga_width>:
     3a0:	040007b7          	lui	a5,0x4000
     3a4:	1087a503          	lw	a0,264(a5) # 4000108 <_stack_end+0x3efd12c>
     3a8:	01051513          	slli	a0,a0,0x10
     3ac:	01055513          	srli	a0,a0,0x10
     3b0:	00008067          	ret

000003b4 <get_vga_height>:
     3b4:	040007b7          	lui	a5,0x4000
     3b8:	1087a503          	lw	a0,264(a5) # 4000108 <_stack_end+0x3efd12c>
     3bc:	01055513          	srli	a0,a0,0x10
     3c0:	00008067          	ret

000003c4 <draw_char>:
     3c4:	00003737          	lui	a4,0x3
     3c8:	00261793          	slli	a5,a2,0x2
     3cc:	c6c72803          	lw	a6,-916(a4) # 2c6c <back_buffer>
     3d0:	00c787b3          	add	a5,a5,a2
     3d4:	00158f93          	addi	t6,a1,1
     3d8:	00258f13          	addi	t5,a1,2
     3dc:	00358e93          	addi	t4,a1,3
     3e0:	00458e13          	addi	t3,a1,4
     3e4:	00679793          	slli	a5,a5,0x6
     3e8:	00b787b3          	add	a5,a5,a1
     3ec:	140fbf93          	sltiu	t6,t6,320
     3f0:	140f3f13          	sltiu	t5,t5,320
     3f4:	140ebe93          	sltiu	t4,t4,320
     3f8:	140e3e13          	sltiu	t3,t3,320
     3fc:	1405b593          	sltiu	a1,a1,320
     400:	00f80833          	add	a6,a6,a5
     404:	001fcf93          	xori	t6,t6,1
     408:	001f4f13          	xori	t5,t5,1
     40c:	001ece93          	xori	t4,t4,1
     410:	001e4e13          	xori	t3,t3,1
     414:	0015c893          	xori	a7,a1,1
     418:	00760313          	addi	t1,a2,7
     41c:	00060713          	mv	a4,a2
     420:	40c707b3          	sub	a5,a4,a2
     424:	00f507b3          	add	a5,a0,a5
     428:	0007c783          	lbu	a5,0(a5)
     42c:	0107f593          	andi	a1,a5,16
     430:	00058a63          	beqz	a1,444 <draw_char+0x80>
     434:	0f073593          	sltiu	a1,a4,240
     438:	00058663          	beqz	a1,444 <draw_char+0x80>
     43c:	00089463          	bnez	a7,444 <draw_char+0x80>
     440:	00d80023          	sb	a3,0(a6)
     444:	0087f593          	andi	a1,a5,8
     448:	00058a63          	beqz	a1,45c <draw_char+0x98>
     44c:	0f073593          	sltiu	a1,a4,240
     450:	00058663          	beqz	a1,45c <draw_char+0x98>
     454:	000f9463          	bnez	t6,45c <draw_char+0x98>
     458:	00d800a3          	sb	a3,1(a6)
     45c:	0047f593          	andi	a1,a5,4
     460:	00058a63          	beqz	a1,474 <draw_char+0xb0>
     464:	0f073593          	sltiu	a1,a4,240
     468:	00058663          	beqz	a1,474 <draw_char+0xb0>
     46c:	000f1463          	bnez	t5,474 <draw_char+0xb0>
     470:	00d80123          	sb	a3,2(a6)
     474:	0027f593          	andi	a1,a5,2
     478:	00058a63          	beqz	a1,48c <draw_char+0xc8>
     47c:	0f073593          	sltiu	a1,a4,240
     480:	00058663          	beqz	a1,48c <draw_char+0xc8>
     484:	000e9463          	bnez	t4,48c <draw_char+0xc8>
     488:	00d801a3          	sb	a3,3(a6)
     48c:	0017f793          	andi	a5,a5,1
     490:	00078a63          	beqz	a5,4a4 <draw_char+0xe0>
     494:	0f073793          	sltiu	a5,a4,240
     498:	00078663          	beqz	a5,4a4 <draw_char+0xe0>
     49c:	000e1463          	bnez	t3,4a4 <draw_char+0xe0>
     4a0:	00d80223          	sb	a3,4(a6)
     4a4:	00170713          	addi	a4,a4,1
     4a8:	14080813          	addi	a6,a6,320
     4ac:	f6e31ae3          	bne	t1,a4,420 <draw_char+0x5c>
     4b0:	00008067          	ret

000004b4 <draw_digit>:
     4b4:	00900793          	li	a5,9
     4b8:	00a7f463          	bgeu	a5,a0,4c0 <draw_digit+0xc>
     4bc:	00008067          	ret
     4c0:	00261793          	slli	a5,a2,0x2
     4c4:	00003737          	lui	a4,0x3
     4c8:	c6c72703          	lw	a4,-916(a4) # 2c6c <back_buffer>
     4cc:	00c787b3          	add	a5,a5,a2
     4d0:	00351893          	slli	a7,a0,0x3
     4d4:	00158f93          	addi	t6,a1,1
     4d8:	00258f13          	addi	t5,a1,2
     4dc:	00358e93          	addi	t4,a1,3
     4e0:	00458e13          	addi	t3,a1,4
     4e4:	00679793          	slli	a5,a5,0x6
     4e8:	40a888b3          	sub	a7,a7,a0
     4ec:	00b787b3          	add	a5,a5,a1
     4f0:	140fbf93          	sltiu	t6,t6,320
     4f4:	140f3f13          	sltiu	t5,t5,320
     4f8:	140ebe93          	sltiu	t4,t4,320
     4fc:	140e3e13          	sltiu	t3,t3,320
     500:	1405b593          	sltiu	a1,a1,320
     504:	00003337          	lui	t1,0x3
     508:	00f70533          	add	a0,a4,a5
     50c:	40c888b3          	sub	a7,a7,a2
     510:	00060713          	mv	a4,a2
     514:	00760813          	addi	a6,a2,7
     518:	001fcf93          	xori	t6,t6,1
     51c:	001f4f13          	xori	t5,t5,1
     520:	001ece93          	xori	t4,t4,1
     524:	001e4e13          	xori	t3,t3,1
     528:	0015c593          	xori	a1,a1,1
     52c:	d9430313          	addi	t1,t1,-620 # 2d94 <font_digits>
     530:	00e887b3          	add	a5,a7,a4
     534:	00f307b3          	add	a5,t1,a5
     538:	0007c783          	lbu	a5,0(a5)
     53c:	0107f613          	andi	a2,a5,16
     540:	00060a63          	beqz	a2,554 <draw_digit+0xa0>
     544:	0f073613          	sltiu	a2,a4,240
     548:	00060663          	beqz	a2,554 <draw_digit+0xa0>
     54c:	00059463          	bnez	a1,554 <draw_digit+0xa0>
     550:	00d50023          	sb	a3,0(a0)
     554:	0087f613          	andi	a2,a5,8
     558:	00060a63          	beqz	a2,56c <draw_digit+0xb8>
     55c:	0f073613          	sltiu	a2,a4,240
     560:	00060663          	beqz	a2,56c <draw_digit+0xb8>
     564:	000f9463          	bnez	t6,56c <draw_digit+0xb8>
     568:	00d500a3          	sb	a3,1(a0)
     56c:	0047f613          	andi	a2,a5,4
     570:	00060a63          	beqz	a2,584 <draw_digit+0xd0>
     574:	0f073613          	sltiu	a2,a4,240
     578:	00060663          	beqz	a2,584 <draw_digit+0xd0>
     57c:	000f1463          	bnez	t5,584 <draw_digit+0xd0>
     580:	00d50123          	sb	a3,2(a0)
     584:	0027f613          	andi	a2,a5,2
     588:	00060a63          	beqz	a2,59c <draw_digit+0xe8>
     58c:	0f073613          	sltiu	a2,a4,240
     590:	00060663          	beqz	a2,59c <draw_digit+0xe8>
     594:	000e9463          	bnez	t4,59c <draw_digit+0xe8>
     598:	00d501a3          	sb	a3,3(a0)
     59c:	0017f793          	andi	a5,a5,1
     5a0:	00078a63          	beqz	a5,5b4 <draw_digit+0x100>
     5a4:	0f073793          	sltiu	a5,a4,240
     5a8:	00078663          	beqz	a5,5b4 <draw_digit+0x100>
     5ac:	000e1463          	bnez	t3,5b4 <draw_digit+0x100>
     5b0:	00d50223          	sb	a3,4(a0)
     5b4:	00170713          	addi	a4,a4,1
     5b8:	14050513          	addi	a0,a0,320
     5bc:	f6e81ae3          	bne	a6,a4,530 <draw_digit+0x7c>
     5c0:	00008067          	ret

000005c4 <draw_number>:
     5c4:	fb010113          	addi	sp,sp,-80
     5c8:	03412e23          	sw	s4,60(sp)
     5cc:	00060a13          	mv	s4,a2
     5d0:	30050863          	beqz	a0,8e0 <__heap_size+0xe0>
     5d4:	30a05063          	blez	a0,8d4 <__heap_size+0xd4>
     5d8:	666667b7          	lui	a5,0x66666
     5dc:	66778793          	addi	a5,a5,1639 # 66666667 <_stack_end+0x6656368b>
     5e0:	02f517b3          	mulh	a5,a0,a5
     5e4:	41f55713          	srai	a4,a0,0x1f
     5e8:	04812623          	sw	s0,76(sp)
     5ec:	04912423          	sw	s1,72(sp)
     5f0:	05212223          	sw	s2,68(sp)
     5f4:	05312023          	sw	s3,64(sp)
     5f8:	03512c23          	sw	s5,56(sp)
     5fc:	03612a23          	sw	s6,52(sp)
     600:	03712823          	sw	s7,48(sp)
     604:	00900613          	li	a2,9
     608:	4027d793          	srai	a5,a5,0x2
     60c:	40e787b3          	sub	a5,a5,a4
     610:	00279713          	slli	a4,a5,0x2
     614:	00f70733          	add	a4,a4,a5
     618:	00171713          	slli	a4,a4,0x1
     61c:	40e50733          	sub	a4,a0,a4
     620:	00e12423          	sw	a4,8(sp)
     624:	3ca65263          	bge	a2,a0,9e8 <__heap_size+0x1e8>
     628:	ccccd737          	lui	a4,0xccccd
     62c:	ccd70713          	addi	a4,a4,-819 # cccccccd <_stack_end+0xccbc9cf1>
     630:	02e7b633          	mulhu	a2,a5,a4
     634:	06300893          	li	a7,99
     638:	00365613          	srli	a2,a2,0x3
     63c:	00261813          	slli	a6,a2,0x2
     640:	00c80833          	add	a6,a6,a2
     644:	00181813          	slli	a6,a6,0x1
     648:	410787b3          	sub	a5,a5,a6
     64c:	00f12623          	sw	a5,12(sp)
     650:	3aa8d463          	bge	a7,a0,9f8 <__heap_size+0x1f8>
     654:	02e637b3          	mulhu	a5,a2,a4
     658:	3e700893          	li	a7,999
     65c:	0037d793          	srli	a5,a5,0x3
     660:	00279813          	slli	a6,a5,0x2
     664:	00f80833          	add	a6,a6,a5
     668:	00181813          	slli	a6,a6,0x1
     66c:	41060633          	sub	a2,a2,a6
     670:	00c12823          	sw	a2,16(sp)
     674:	36a8de63          	bge	a7,a0,9f0 <__heap_size+0x1f0>
     678:	02e7b633          	mulhu	a2,a5,a4
     67c:	000028b7          	lui	a7,0x2
     680:	70f88893          	addi	a7,a7,1807 # 270f <main+0xfb>
     684:	00365613          	srli	a2,a2,0x3
     688:	00261813          	slli	a6,a2,0x2
     68c:	00c80833          	add	a6,a6,a2
     690:	00181813          	slli	a6,a6,0x1
     694:	410787b3          	sub	a5,a5,a6
     698:	00f12a23          	sw	a5,20(sp)
     69c:	34a8d263          	bge	a7,a0,9e0 <__heap_size+0x1e0>
     6a0:	02e637b3          	mulhu	a5,a2,a4
     6a4:	000188b7          	lui	a7,0x18
     6a8:	69f88893          	addi	a7,a7,1695 # 1869f <__global_pointer+0x1524e>
     6ac:	0037d793          	srli	a5,a5,0x3
     6b0:	00279813          	slli	a6,a5,0x2
     6b4:	00f80833          	add	a6,a6,a5
     6b8:	00181813          	slli	a6,a6,0x1
     6bc:	41060633          	sub	a2,a2,a6
     6c0:	00c12c23          	sw	a2,24(sp)
     6c4:	32a8de63          	bge	a7,a0,a00 <__heap_size+0x200>
     6c8:	02e7b833          	mulhu	a6,a5,a4
     6cc:	000f48b7          	lui	a7,0xf4
     6d0:	23f88893          	addi	a7,a7,575 # f423f <__global_pointer+0xf0dee>
     6d4:	00385813          	srli	a6,a6,0x3
     6d8:	00281613          	slli	a2,a6,0x2
     6dc:	01060633          	add	a2,a2,a6
     6e0:	00161613          	slli	a2,a2,0x1
     6e4:	40c787b3          	sub	a5,a5,a2
     6e8:	00f12e23          	sw	a5,28(sp)
     6ec:	30a8de63          	bge	a7,a0,a08 <__heap_size+0x208>
     6f0:	02e83633          	mulhu	a2,a6,a4
     6f4:	009898b7          	lui	a7,0x989
     6f8:	67f88893          	addi	a7,a7,1663 # 98967f <_stack_end+0x8866a3>
     6fc:	00365613          	srli	a2,a2,0x3
     700:	00261793          	slli	a5,a2,0x2
     704:	00c787b3          	add	a5,a5,a2
     708:	00179793          	slli	a5,a5,0x1
     70c:	40f80833          	sub	a6,a6,a5
     710:	03012023          	sw	a6,32(sp)
     714:	2ea8de63          	bge	a7,a0,a10 <__heap_size+0x210>
     718:	02e637b3          	mulhu	a5,a2,a4
     71c:	05f5e837          	lui	a6,0x5f5e
     720:	0ff80813          	addi	a6,a6,255 # 5f5e0ff <_stack_end+0x5e5b123>
     724:	0037d793          	srli	a5,a5,0x3
     728:	00279713          	slli	a4,a5,0x2
     72c:	00f707b3          	add	a5,a4,a5
     730:	00179793          	slli	a5,a5,0x1
     734:	40f607b3          	sub	a5,a2,a5
     738:	02f12223          	sw	a5,36(sp)
     73c:	2ca85e63          	bge	a6,a0,a18 <__heap_size+0x218>
     740:	ccccd737          	lui	a4,0xccccd
     744:	ccd70713          	addi	a4,a4,-819 # cccccccd <_stack_end+0xccbc9cf1>
     748:	02e637b3          	mulhu	a5,a2,a4
     74c:	3b9ad837          	lui	a6,0x3b9ad
     750:	9ff80813          	addi	a6,a6,-1537 # 3b9ac9ff <_stack_end+0x3b8a9a23>
     754:	0037d793          	srli	a5,a5,0x3
     758:	02e7b733          	mulhu	a4,a5,a4
     75c:	00375713          	srli	a4,a4,0x3
     760:	00271613          	slli	a2,a4,0x2
     764:	00e60633          	add	a2,a2,a4
     768:	00161613          	slli	a2,a2,0x1
     76c:	40c787b3          	sub	a5,a5,a2
     770:	02f12423          	sw	a5,40(sp)
     774:	2aa85663          	bge	a6,a0,a20 <__heap_size+0x220>
     778:	02e12623          	sw	a4,44(sp)
     77c:	00900713          	li	a4,9
     780:	00003637          	lui	a2,0x3
     784:	c6c62b83          	lw	s7,-916(a2) # 2c6c <back_buffer>
     788:	002a1793          	slli	a5,s4,0x2
     78c:	014787b3          	add	a5,a5,s4
     790:	00271713          	slli	a4,a4,0x2
     794:	00679793          	slli	a5,a5,0x6
     798:	00810a93          	addi	s5,sp,8
     79c:	00003e37          	lui	t3,0x3
     7a0:	00fb8bb3          	add	s7,s7,a5
     7a4:	01570333          	add	t1,a4,s5
     7a8:	d94e0e13          	addi	t3,t3,-620 # 2d94 <font_digits>
     7ac:	00458993          	addi	s3,a1,4
     7b0:	00358913          	addi	s2,a1,3
     7b4:	00258493          	addi	s1,a1,2
     7b8:	00158413          	addi	s0,a1,1
     7bc:	00900b13          	li	s6,9
     7c0:	007a0613          	addi	a2,s4,7
     7c4:	00032783          	lw	a5,0(t1)
     7c8:	0cfb6863          	bltu	s6,a5,898 <__heap_size+0x98>
     7cc:	00379893          	slli	a7,a5,0x3
     7d0:	40f888b3          	sub	a7,a7,a5
     7d4:	1405b393          	sltiu	t2,a1,320
     7d8:	14043293          	sltiu	t0,s0,320
     7dc:	1404bf93          	sltiu	t6,s1,320
     7e0:	14093f13          	sltiu	t5,s2,320
     7e4:	1409be93          	sltiu	t4,s3,320
     7e8:	414888b3          	sub	a7,a7,s4
     7ec:	0013c393          	xori	t2,t2,1
     7f0:	0012c293          	xori	t0,t0,1
     7f4:	001fcf93          	xori	t6,t6,1
     7f8:	001f4f13          	xori	t5,t5,1
     7fc:	001ece93          	xori	t4,t4,1
     800:	00bb8533          	add	a0,s7,a1
     804:	000a0713          	mv	a4,s4
     808:	00e887b3          	add	a5,a7,a4
     80c:	00fe07b3          	add	a5,t3,a5
     810:	0007c783          	lbu	a5,0(a5)
     814:	0107f813          	andi	a6,a5,16
     818:	00080a63          	beqz	a6,82c <__heap_size+0x2c>
     81c:	0f073813          	sltiu	a6,a4,240
     820:	00080663          	beqz	a6,82c <__heap_size+0x2c>
     824:	00039463          	bnez	t2,82c <__heap_size+0x2c>
     828:	00d50023          	sb	a3,0(a0)
     82c:	0087f813          	andi	a6,a5,8
     830:	00080a63          	beqz	a6,844 <__heap_size+0x44>
     834:	0f073813          	sltiu	a6,a4,240
     838:	00080663          	beqz	a6,844 <__heap_size+0x44>
     83c:	00029463          	bnez	t0,844 <__heap_size+0x44>
     840:	00d500a3          	sb	a3,1(a0)
     844:	0047f813          	andi	a6,a5,4
     848:	00080a63          	beqz	a6,85c <__heap_size+0x5c>
     84c:	0f073813          	sltiu	a6,a4,240
     850:	00080663          	beqz	a6,85c <__heap_size+0x5c>
     854:	000f9463          	bnez	t6,85c <__heap_size+0x5c>
     858:	00d50123          	sb	a3,2(a0)
     85c:	0027f813          	andi	a6,a5,2
     860:	00080a63          	beqz	a6,874 <__heap_size+0x74>
     864:	0f073813          	sltiu	a6,a4,240
     868:	00080663          	beqz	a6,874 <__heap_size+0x74>
     86c:	000f1463          	bnez	t5,874 <__heap_size+0x74>
     870:	00d501a3          	sb	a3,3(a0)
     874:	0017f793          	andi	a5,a5,1
     878:	00078a63          	beqz	a5,88c <__heap_size+0x8c>
     87c:	0f073793          	sltiu	a5,a4,240
     880:	00078663          	beqz	a5,88c <__heap_size+0x8c>
     884:	000e9463          	bnez	t4,88c <__heap_size+0x8c>
     888:	00d50223          	sb	a3,4(a0)
     88c:	00170713          	addi	a4,a4,1
     890:	14050513          	addi	a0,a0,320
     894:	f6e61ae3          	bne	a2,a4,808 <__heap_size+0x8>
     898:	00658593          	addi	a1,a1,6
     89c:	00698993          	addi	s3,s3,6
     8a0:	00690913          	addi	s2,s2,6
     8a4:	00648493          	addi	s1,s1,6
     8a8:	00640413          	addi	s0,s0,6
     8ac:	006a8663          	beq	s5,t1,8b8 <__heap_size+0xb8>
     8b0:	ffc30313          	addi	t1,t1,-4
     8b4:	f11ff06f          	j	7c4 <draw_number+0x200>
     8b8:	04c12403          	lw	s0,76(sp)
     8bc:	04812483          	lw	s1,72(sp)
     8c0:	04412903          	lw	s2,68(sp)
     8c4:	04012983          	lw	s3,64(sp)
     8c8:	03812a83          	lw	s5,56(sp)
     8cc:	03412b03          	lw	s6,52(sp)
     8d0:	03012b83          	lw	s7,48(sp)
     8d4:	03c12a03          	lw	s4,60(sp)
     8d8:	05010113          	addi	sp,sp,80
     8dc:	00008067          	ret
     8e0:	00261793          	slli	a5,a2,0x2
     8e4:	00003737          	lui	a4,0x3
     8e8:	00c787b3          	add	a5,a5,a2
     8ec:	c6c72603          	lw	a2,-916(a4) # 2c6c <back_buffer>
     8f0:	00158e93          	addi	t4,a1,1
     8f4:	00258e13          	addi	t3,a1,2
     8f8:	00358313          	addi	t1,a1,3
     8fc:	00458893          	addi	a7,a1,4
     900:	00679793          	slli	a5,a5,0x6
     904:	00b787b3          	add	a5,a5,a1
     908:	140ebe93          	sltiu	t4,t4,320
     90c:	140e3e13          	sltiu	t3,t3,320
     910:	14033313          	sltiu	t1,t1,320
     914:	1408b893          	sltiu	a7,a7,320
     918:	1405b593          	sltiu	a1,a1,320
     91c:	00003537          	lui	a0,0x3
     920:	00f60633          	add	a2,a2,a5
     924:	001ece93          	xori	t4,t4,1
     928:	001e4e13          	xori	t3,t3,1
     92c:	00134313          	xori	t1,t1,1
     930:	0018c893          	xori	a7,a7,1
     934:	0015cf13          	xori	t5,a1,1
     938:	d9450513          	addi	a0,a0,-620 # 2d94 <font_digits>
     93c:	007a0813          	addi	a6,s4,7
     940:	000a0713          	mv	a4,s4
     944:	414707b3          	sub	a5,a4,s4
     948:	00f507b3          	add	a5,a0,a5
     94c:	0007c783          	lbu	a5,0(a5)
     950:	0107f593          	andi	a1,a5,16
     954:	00058a63          	beqz	a1,968 <__heap_size+0x168>
     958:	0f073593          	sltiu	a1,a4,240
     95c:	00058663          	beqz	a1,968 <__heap_size+0x168>
     960:	000f1463          	bnez	t5,968 <__heap_size+0x168>
     964:	00d60023          	sb	a3,0(a2)
     968:	0087f593          	andi	a1,a5,8
     96c:	00058a63          	beqz	a1,980 <__heap_size+0x180>
     970:	0f073593          	sltiu	a1,a4,240
     974:	00058663          	beqz	a1,980 <__heap_size+0x180>
     978:	000e9463          	bnez	t4,980 <__heap_size+0x180>
     97c:	00d600a3          	sb	a3,1(a2)
     980:	0047f593          	andi	a1,a5,4
     984:	00058a63          	beqz	a1,998 <__heap_size+0x198>
     988:	0f073593          	sltiu	a1,a4,240
     98c:	00058663          	beqz	a1,998 <__heap_size+0x198>
     990:	000e1463          	bnez	t3,998 <__heap_size+0x198>
     994:	00d60123          	sb	a3,2(a2)
     998:	0027f593          	andi	a1,a5,2
     99c:	00058a63          	beqz	a1,9b0 <__heap_size+0x1b0>
     9a0:	0f073593          	sltiu	a1,a4,240
     9a4:	00058663          	beqz	a1,9b0 <__heap_size+0x1b0>
     9a8:	00031463          	bnez	t1,9b0 <__heap_size+0x1b0>
     9ac:	00d601a3          	sb	a3,3(a2)
     9b0:	0017f793          	andi	a5,a5,1
     9b4:	00078a63          	beqz	a5,9c8 <__heap_size+0x1c8>
     9b8:	0f073793          	sltiu	a5,a4,240
     9bc:	00078663          	beqz	a5,9c8 <__heap_size+0x1c8>
     9c0:	00089463          	bnez	a7,9c8 <__heap_size+0x1c8>
     9c4:	00d60223          	sb	a3,4(a2)
     9c8:	00170713          	addi	a4,a4,1
     9cc:	14060613          	addi	a2,a2,320
     9d0:	f7071ae3          	bne	a4,a6,944 <__heap_size+0x144>
     9d4:	03c12a03          	lw	s4,60(sp)
     9d8:	05010113          	addi	sp,sp,80
     9dc:	00008067          	ret
     9e0:	00300713          	li	a4,3
     9e4:	d9dff06f          	j	780 <draw_number+0x1bc>
     9e8:	00000713          	li	a4,0
     9ec:	d95ff06f          	j	780 <draw_number+0x1bc>
     9f0:	00200713          	li	a4,2
     9f4:	d8dff06f          	j	780 <draw_number+0x1bc>
     9f8:	00100713          	li	a4,1
     9fc:	d85ff06f          	j	780 <draw_number+0x1bc>
     a00:	00400713          	li	a4,4
     a04:	d7dff06f          	j	780 <draw_number+0x1bc>
     a08:	00500713          	li	a4,5
     a0c:	d75ff06f          	j	780 <draw_number+0x1bc>
     a10:	00600713          	li	a4,6
     a14:	d6dff06f          	j	780 <draw_number+0x1bc>
     a18:	00700713          	li	a4,7
     a1c:	d65ff06f          	j	780 <draw_number+0x1bc>
     a20:	00800713          	li	a4,8
     a24:	d5dff06f          	j	780 <draw_number+0x1bc>

00000a28 <draw_score_label>:
     a28:	fe010113          	addi	sp,sp,-32
     a2c:	00003737          	lui	a4,0x3
     a30:	00259793          	slli	a5,a1,0x2
     a34:	01312823          	sw	s3,16(sp)
     a38:	c6c72983          	lw	s3,-916(a4) # 2c6c <back_buffer>
     a3c:	00b787b3          	add	a5,a5,a1
     a40:	00003737          	lui	a4,0x3
     a44:	01212a23          	sw	s2,20(sp)
     a48:	00679793          	slli	a5,a5,0x6
     a4c:	00058913          	mv	s2,a1
     a50:	ddc70713          	addi	a4,a4,-548 # 2ddc <font_letters>
     a54:	00812e23          	sw	s0,28(sp)
     a58:	00912c23          	sw	s1,24(sp)
     a5c:	01412623          	sw	s4,12(sp)
     a60:	00f989b3          	add	s3,s3,a5
     a64:	00150493          	addi	s1,a0,1
     a68:	00250413          	addi	s0,a0,2
     a6c:	00350593          	addi	a1,a0,3
     a70:	00450393          	addi	t2,a0,4
     a74:	01e50a13          	addi	s4,a0,30
     a78:	412708b3          	sub	a7,a4,s2
     a7c:	00790293          	addi	t0,s2,7
     a80:	14053f93          	sltiu	t6,a0,320
     a84:	1404bf13          	sltiu	t5,s1,320
     a88:	14043e93          	sltiu	t4,s0,320
     a8c:	1405be13          	sltiu	t3,a1,320
     a90:	1403b313          	sltiu	t1,t2,320
     a94:	001fcf93          	xori	t6,t6,1
     a98:	001f4f13          	xori	t5,t5,1
     a9c:	001ece93          	xori	t4,t4,1
     aa0:	001e4e13          	xori	t3,t3,1
     aa4:	00134313          	xori	t1,t1,1
     aa8:	013506b3          	add	a3,a0,s3
     aac:	00090713          	mv	a4,s2
     ab0:	00e887b3          	add	a5,a7,a4
     ab4:	0007c783          	lbu	a5,0(a5)
     ab8:	0107f813          	andi	a6,a5,16
     abc:	00080a63          	beqz	a6,ad0 <draw_score_label+0xa8>
     ac0:	0f073813          	sltiu	a6,a4,240
     ac4:	00080663          	beqz	a6,ad0 <draw_score_label+0xa8>
     ac8:	000f9463          	bnez	t6,ad0 <draw_score_label+0xa8>
     acc:	00c68023          	sb	a2,0(a3)
     ad0:	0087f813          	andi	a6,a5,8
     ad4:	00080a63          	beqz	a6,ae8 <draw_score_label+0xc0>
     ad8:	0f073813          	sltiu	a6,a4,240
     adc:	00080663          	beqz	a6,ae8 <draw_score_label+0xc0>
     ae0:	000f1463          	bnez	t5,ae8 <draw_score_label+0xc0>
     ae4:	00c680a3          	sb	a2,1(a3)
     ae8:	0047f813          	andi	a6,a5,4
     aec:	00080a63          	beqz	a6,b00 <draw_score_label+0xd8>
     af0:	0f073813          	sltiu	a6,a4,240
     af4:	00080663          	beqz	a6,b00 <draw_score_label+0xd8>
     af8:	000e9463          	bnez	t4,b00 <draw_score_label+0xd8>
     afc:	00c68123          	sb	a2,2(a3)
     b00:	0027f813          	andi	a6,a5,2
     b04:	00080a63          	beqz	a6,b18 <draw_score_label+0xf0>
     b08:	0f073813          	sltiu	a6,a4,240
     b0c:	00080663          	beqz	a6,b18 <draw_score_label+0xf0>
     b10:	000e1463          	bnez	t3,b18 <draw_score_label+0xf0>
     b14:	00c681a3          	sb	a2,3(a3)
     b18:	0017f793          	andi	a5,a5,1
     b1c:	00078a63          	beqz	a5,b30 <draw_score_label+0x108>
     b20:	0f073793          	sltiu	a5,a4,240
     b24:	00078663          	beqz	a5,b30 <draw_score_label+0x108>
     b28:	00031463          	bnez	t1,b30 <draw_score_label+0x108>
     b2c:	00c68223          	sb	a2,4(a3)
     b30:	00170713          	addi	a4,a4,1
     b34:	14068693          	addi	a3,a3,320
     b38:	f6571ce3          	bne	a4,t0,ab0 <draw_score_label+0x88>
     b3c:	00650513          	addi	a0,a0,6
     b40:	00648493          	addi	s1,s1,6
     b44:	00640413          	addi	s0,s0,6
     b48:	00658593          	addi	a1,a1,6
     b4c:	00638393          	addi	t2,t2,6
     b50:	00788893          	addi	a7,a7,7
     b54:	f34516e3          	bne	a0,s4,a80 <draw_score_label+0x58>
     b58:	01c12403          	lw	s0,28(sp)
     b5c:	01812483          	lw	s1,24(sp)
     b60:	01412903          	lw	s2,20(sp)
     b64:	01012983          	lw	s3,16(sp)
     b68:	00c12a03          	lw	s4,12(sp)
     b6c:	02010113          	addi	sp,sp,32
     b70:	00008067          	ret

00000b74 <display_string>:
     b74:	00400893          	li	a7,4
     b78:	00000073          	ecall
     b7c:	00a00513          	li	a0,10
     b80:	00b00893          	li	a7,11
     b84:	00000073          	ecall
     b88:	00008067          	ret

00000b8c <timetemplate>:
     b8c:	00002517          	auipc	a0,0x2
     b90:	0a850513          	addi	a0,a0,168 # 2c34 <timstr>
     b94:	fe1ff0ef          	jal	b74 <display_string>
     b98:	3e800513          	li	a0,1000
     b9c:	0a4000ef          	jal	c40 <delay>
     ba0:	00002517          	auipc	a0,0x2
     ba4:	09050513          	addi	a0,a0,144 # 2c30 <mytime>
     ba8:	020000ef          	jal	bc8 <tick>
     bac:	00002517          	auipc	a0,0x2
     bb0:	08850513          	addi	a0,a0,136 # 2c34 <timstr>
     bb4:	00002297          	auipc	t0,0x2
     bb8:	07c28293          	addi	t0,t0,124 # 2c30 <mytime>
     bbc:	0002a583          	lw	a1,0(t0)
     bc0:	0d0000ef          	jal	c90 <time2string>
     bc4:	fc9ff06f          	j	b8c <timetemplate>

00000bc8 <tick>:
     bc8:	00052283          	lw	t0,0(a0)
     bcc:	00128293          	addi	t0,t0,1
     bd0:	00f2f313          	andi	t1,t0,15
     bd4:	00a33393          	sltiu	t2,t1,10
     bd8:	06039063          	bnez	t2,c38 <tiend>
     bdc:	00628293          	addi	t0,t0,6
     be0:	0f02f313          	andi	t1,t0,240
     be4:	06033393          	sltiu	t2,t1,96
     be8:	04039863          	bnez	t2,c38 <tiend>
     bec:	0a028293          	addi	t0,t0,160
     bf0:	00f00e13          	li	t3,15
     bf4:	008e1e13          	slli	t3,t3,0x8
     bf8:	01c2f333          	and	t1,t0,t3
     bfc:	00a00e13          	li	t3,10
     c00:	008e1e13          	slli	t3,t3,0x8
     c04:	01c323b3          	slt	t2,t1,t3
     c08:	02039863          	bnez	t2,c38 <tiend>
     c0c:	60028293          	addi	t0,t0,1536
     c10:	00f00e13          	li	t3,15
     c14:	00ce1e13          	slli	t3,t3,0xc
     c18:	01c2f333          	and	t1,t0,t3
     c1c:	00600e13          	li	t3,6
     c20:	00ce1e13          	slli	t3,t3,0xc
     c24:	01c323b3          	slt	t2,t1,t3
     c28:	00039863          	bnez	t2,c38 <tiend>
     c2c:	00a00e13          	li	t3,10
     c30:	00ce1e13          	slli	t3,t3,0xc
     c34:	01c282b3          	add	t0,t0,t3

00000c38 <tiend>:
     c38:	00552023          	sw	t0,0(a0)
     c3c:	00008067          	ret

00000c40 <delay>:
     c40:	ffc10113          	addi	sp,sp,-4
     c44:	00112023          	sw	ra,0(sp)
     c48:	ffc10113          	addi	sp,sp,-4
     c4c:	00a12023          	sw	a0,0(sp)

00000c50 <while>:
     c50:	00152293          	slti	t0,a0,1
     c54:	02029463          	bnez	t0,c7c <while_done>
     c58:	fff50513          	addi	a0,a0,-1
     c5c:	00002337          	lui	t1,0x2
     c60:	71030313          	addi	t1,t1,1808 # 2710 <main+0xfc>
     c64:	00000393          	li	t2,0
     c68:	0040006f          	j	c6c <for>

00000c6c <for>:
     c6c:	0063d663          	bge	t2,t1,c78 <for_done>
     c70:	00138393          	addi	t2,t2,1
     c74:	ff9ff06f          	j	c6c <for>

00000c78 <for_done>:
     c78:	fd9ff06f          	j	c50 <while>

00000c7c <while_done>:
     c7c:	00012503          	lw	a0,0(sp)
     c80:	00410113          	addi	sp,sp,4
     c84:	00012083          	lw	ra,0(sp)
     c88:	00410113          	addi	sp,sp,4
     c8c:	00008067          	ret

00000c90 <time2string>:
     c90:	ffc10113          	addi	sp,sp,-4
     c94:	00112023          	sw	ra,0(sp)
     c98:	ffc10113          	addi	sp,sp,-4
     c9c:	00a12023          	sw	a0,0(sp)
     ca0:	00c5d293          	srli	t0,a1,0xc
     ca4:	0085d313          	srli	t1,a1,0x8
     ca8:	0045d393          	srli	t2,a1,0x4
     cac:	00f2f293          	andi	t0,t0,15
     cb0:	00f37313          	andi	t1,t1,15
     cb4:	00f3f393          	andi	t2,t2,15
     cb8:	00f5fe13          	andi	t3,a1,15
     cbc:	00028513          	mv	a0,t0
     cc0:	05c000ef          	jal	d1c <hex2asc>
     cc4:	00050293          	mv	t0,a0
     cc8:	00030513          	mv	a0,t1
     ccc:	050000ef          	jal	d1c <hex2asc>
     cd0:	00050313          	mv	t1,a0
     cd4:	00038513          	mv	a0,t2
     cd8:	044000ef          	jal	d1c <hex2asc>
     cdc:	00050393          	mv	t2,a0
     ce0:	000e0513          	mv	a0,t3
     ce4:	038000ef          	jal	d1c <hex2asc>
     ce8:	00050e13          	mv	t3,a0
     cec:	00012503          	lw	a0,0(sp)
     cf0:	00410113          	addi	sp,sp,4
     cf4:	00550023          	sb	t0,0(a0)
     cf8:	006500a3          	sb	t1,1(a0)
     cfc:	03a00e93          	li	t4,58
     d00:	01d50123          	sb	t4,2(a0)
     d04:	007501a3          	sb	t2,3(a0)
     d08:	01c50223          	sb	t3,4(a0)
     d0c:	000502a3          	sb	zero,5(a0)
     d10:	00012083          	lw	ra,0(sp)
     d14:	00410113          	addi	sp,sp,4
     d18:	00008067          	ret

00000d1c <hex2asc>:
     d1c:	ffc10113          	addi	sp,sp,-4
     d20:	00112023          	sw	ra,0(sp)
     d24:	010000ef          	jal	d34 <hexasc>
     d28:	00012083          	lw	ra,0(sp)
     d2c:	00410113          	addi	sp,sp,4
     d30:	00008067          	ret

00000d34 <hexasc>:
     d34:	00f57513          	andi	a0,a0,15
     d38:	03700613          	li	a2,55
     d3c:	03000593          	li	a1,48
     d40:	00000713          	li	a4,0
     d44:	00a52693          	slti	a3,a0,10
     d48:	00e69663          	bne	a3,a4,d54 <else>
     d4c:	00c50533          	add	a0,a0,a2
     d50:	00008067          	ret

00000d54 <else>:
     d54:	00b50533          	add	a0,a0,a1
     d58:	00008067          	ret

00000d5c <generateseed>:
     d5c:	ff010113          	addi	sp,sp,-16
     d60:	00003537          	lui	a0,0x3
     d64:	00812423          	sw	s0,8(sp)
     d68:	ec450513          	addi	a0,a0,-316 # 2ec4 <pieces+0xc4>
     d6c:	00003437          	lui	s0,0x3
     d70:	00112623          	sw	ra,12(sp)
     d74:	d8042223          	sw	zero,-636(s0) # 2d84 <seed>
     d78:	249010ef          	jal	27c0 <print>
     d7c:	0440006f          	j	dc0 <generateseed+0x64>
     d80:	7c0010ef          	jal	2540 <get_btn>
     d84:	00050793          	mv	a5,a0
     d88:	00200513          	li	a0,2
     d8c:	04079463          	bnez	a5,dd4 <generateseed+0x78>
     d90:	7b0010ef          	jal	2540 <get_btn>
     d94:	00050793          	mv	a5,a0
     d98:	00300513          	li	a0,3
     d9c:	02079c63          	bnez	a5,dd4 <generateseed+0x78>
     da0:	7a0010ef          	jal	2540 <get_btn>
     da4:	00050793          	mv	a5,a0
     da8:	00100513          	li	a0,1
     dac:	02079463          	bnez	a5,dd4 <generateseed+0x78>
     db0:	d8442783          	lw	a5,-636(s0)
     db4:	00178793          	addi	a5,a5,1
     db8:	d8f42223          	sw	a5,-636(s0)
     dbc:	e85ff0ef          	jal	c40 <delay>
     dc0:	00000513          	li	a0,0
     dc4:	77c010ef          	jal	2540 <get_btn>
     dc8:	00050793          	mv	a5,a0
     dcc:	00100513          	li	a0,1
     dd0:	fa0788e3          	beqz	a5,d80 <generateseed+0x24>
     dd4:	00003537          	lui	a0,0x3
     dd8:	ef450513          	addi	a0,a0,-268 # 2ef4 <pieces+0xf4>
     ddc:	1e5010ef          	jal	27c0 <print>
     de0:	d8442503          	lw	a0,-636(s0)
     de4:	215010ef          	jal	27f8 <print_dec>
     de8:	00812403          	lw	s0,8(sp)
     dec:	00c12083          	lw	ra,12(sp)
     df0:	00003537          	lui	a0,0x3
     df4:	f0450513          	addi	a0,a0,-252 # 2f04 <pieces+0x104>
     df8:	01010113          	addi	sp,sp,16
     dfc:	1c50106f          	j	27c0 <print>

00000e00 <rand>:
     e00:	00003737          	lui	a4,0x3
     e04:	d8472503          	lw	a0,-636(a4) # 2d84 <seed>
     e08:	41c657b7          	lui	a5,0x41c65
     e0c:	e6d78793          	addi	a5,a5,-403 # 41c64e6d <_stack_end+0x41b61e91>
     e10:	02f50533          	mul	a0,a0,a5
     e14:	000037b7          	lui	a5,0x3
     e18:	03978793          	addi	a5,a5,57 # 3039 <pieces+0x239>
     e1c:	00f50533          	add	a0,a0,a5
     e20:	00151793          	slli	a5,a0,0x1
     e24:	d8a72223          	sw	a0,-636(a4)
     e28:	0117d513          	srli	a0,a5,0x11
     e2c:	00008067          	ret

00000e30 <clearboard>:
     e30:	000037b7          	lui	a5,0x3
     e34:	c7878793          	addi	a5,a5,-904 # 2c78 <board>
     e38:	0007a023          	sw	zero,0(a5)
     e3c:	0007a223          	sw	zero,4(a5)
     e40:	0007a423          	sw	zero,8(a5)
     e44:	0007a623          	sw	zero,12(a5)
     e48:	0007a823          	sw	zero,16(a5)
     e4c:	0007aa23          	sw	zero,20(a5)
     e50:	0007ac23          	sw	zero,24(a5)
     e54:	0007ae23          	sw	zero,28(a5)
     e58:	0207a023          	sw	zero,32(a5)
     e5c:	0207a223          	sw	zero,36(a5)
     e60:	0207a423          	sw	zero,40(a5)
     e64:	0207a623          	sw	zero,44(a5)
     e68:	0207a823          	sw	zero,48(a5)
     e6c:	0207aa23          	sw	zero,52(a5)
     e70:	0207ac23          	sw	zero,56(a5)
     e74:	0207ae23          	sw	zero,60(a5)
     e78:	0407a023          	sw	zero,64(a5)
     e7c:	0407a223          	sw	zero,68(a5)
     e80:	0407a423          	sw	zero,72(a5)
     e84:	0407a623          	sw	zero,76(a5)
     e88:	0407a823          	sw	zero,80(a5)
     e8c:	0407aa23          	sw	zero,84(a5)
     e90:	0407ac23          	sw	zero,88(a5)
     e94:	0407ae23          	sw	zero,92(a5)
     e98:	0607a023          	sw	zero,96(a5)
     e9c:	0607a223          	sw	zero,100(a5)
     ea0:	0607a423          	sw	zero,104(a5)
     ea4:	0607a623          	sw	zero,108(a5)
     ea8:	0607a823          	sw	zero,112(a5)
     eac:	0607aa23          	sw	zero,116(a5)
     eb0:	0607ac23          	sw	zero,120(a5)
     eb4:	0607ae23          	sw	zero,124(a5)
     eb8:	0807a023          	sw	zero,128(a5)
     ebc:	0807a223          	sw	zero,132(a5)
     ec0:	0807a423          	sw	zero,136(a5)
     ec4:	0807a623          	sw	zero,140(a5)
     ec8:	0807a823          	sw	zero,144(a5)
     ecc:	0807aa23          	sw	zero,148(a5)
     ed0:	0807ac23          	sw	zero,152(a5)
     ed4:	0807ae23          	sw	zero,156(a5)
     ed8:	0a07a023          	sw	zero,160(a5)
     edc:	0a07a223          	sw	zero,164(a5)
     ee0:	0a07a423          	sw	zero,168(a5)
     ee4:	0a07a623          	sw	zero,172(a5)
     ee8:	0a07a823          	sw	zero,176(a5)
     eec:	0a07aa23          	sw	zero,180(a5)
     ef0:	0a07ac23          	sw	zero,184(a5)
     ef4:	0a07ae23          	sw	zero,188(a5)
     ef8:	0c07a023          	sw	zero,192(a5)
     efc:	0c07a223          	sw	zero,196(a5)
     f00:	00008067          	ret

00000f04 <draw_board>:
     f04:	fd010113          	addi	sp,sp,-48
     f08:	01512a23          	sw	s5,20(sp)
     f0c:	00050a93          	mv	s5,a0
     f10:	00000513          	li	a0,0
     f14:	02112623          	sw	ra,44(sp)
     f18:	02812423          	sw	s0,40(sp)
     f1c:	02912223          	sw	s1,36(sp)
     f20:	01712623          	sw	s7,12(sp)
     f24:	03212023          	sw	s2,32(sp)
     f28:	00058b93          	mv	s7,a1
     f2c:	01312e23          	sw	s3,28(sp)
     f30:	01412c23          	sw	s4,24(sp)
     f34:	01612823          	sw	s6,16(sp)
     f38:	b6cff0ef          	jal	2a4 <clear_backbuffer>
     f3c:	0ff00713          	li	a4,255
     f40:	00100693          	li	a3,1
     f44:	06600613          	li	a2,102
     f48:	01300593          	li	a1,19
     f4c:	06500513          	li	a0,101
     f50:	bacff0ef          	jal	2fc <draw_tile>
     f54:	0ff00713          	li	a4,255
     f58:	00100693          	li	a3,1
     f5c:	06600613          	li	a2,102
     f60:	0dc00593          	li	a1,220
     f64:	06500513          	li	a0,101
     f68:	b94ff0ef          	jal	2fc <draw_tile>
     f6c:	0ff00713          	li	a4,255
     f70:	0c800693          	li	a3,200
     f74:	00100613          	li	a2,1
     f78:	01400593          	li	a1,20
     f7c:	06500513          	li	a0,101
     f80:	b7cff0ef          	jal	2fc <draw_tile>
     f84:	0ff00713          	li	a4,255
     f88:	0c800693          	li	a3,200
     f8c:	00100613          	li	a2,1
     f90:	01400593          	li	a1,20
     f94:	0ca00513          	li	a0,202
     f98:	b64ff0ef          	jal	2fc <draw_tile>
     f9c:	01e00413          	li	s0,30
     fa0:	0dc00493          	li	s1,220
     fa4:	00040593          	mv	a1,s0
     fa8:	04900713          	li	a4,73
     fac:	00100693          	li	a3,1
     fb0:	06400613          	li	a2,100
     fb4:	06600513          	li	a0,102
     fb8:	00a40413          	addi	s0,s0,10
     fbc:	b40ff0ef          	jal	2fc <draw_tile>
     fc0:	fe9412e3          	bne	s0,s1,fa4 <draw_board+0xa0>
     fc4:	07000413          	li	s0,112
     fc8:	0ca00493          	li	s1,202
     fcc:	00040513          	mv	a0,s0
     fd0:	04900713          	li	a4,73
     fd4:	0c800693          	li	a3,200
     fd8:	00100613          	li	a2,1
     fdc:	01400593          	li	a1,20
     fe0:	00a40413          	addi	s0,s0,10
     fe4:	b18ff0ef          	jal	2fc <draw_tile>
     fe8:	fe9412e3          	bne	s0,s1,fcc <draw_board+0xc8>
     fec:	000039b7          	lui	s3,0x3
     ff0:	c7898993          	addi	s3,s3,-904 # 2c78 <board>
     ff4:	00098413          	mv	s0,s3
     ff8:	01400b13          	li	s6,20
     ffc:	01500a13          	li	s4,21
    1000:	0c898993          	addi	s3,s3,200
    1004:	408b0b33          	sub	s6,s6,s0
    1008:	408a0a33          	sub	s4,s4,s0
    100c:	0540006f          	j	1060 <draw_board+0x15c>
    1010:	00144703          	lbu	a4,1(s0)
    1014:	0a071463          	bnez	a4,10bc <draw_board+0x1b8>
    1018:	00244703          	lbu	a4,2(s0)
    101c:	0e071663          	bnez	a4,1108 <draw_board+0x204>
    1020:	00344703          	lbu	a4,3(s0)
    1024:	12071863          	bnez	a4,1154 <draw_board+0x250>
    1028:	00444703          	lbu	a4,4(s0)
    102c:	16071a63          	bnez	a4,11a0 <draw_board+0x29c>
    1030:	00544703          	lbu	a4,5(s0)
    1034:	1a071c63          	bnez	a4,11ec <draw_board+0x2e8>
    1038:	00644703          	lbu	a4,6(s0)
    103c:	1e071e63          	bnez	a4,1238 <draw_board+0x334>
    1040:	00744703          	lbu	a4,7(s0)
    1044:	24071063          	bnez	a4,1284 <draw_board+0x380>
    1048:	00844703          	lbu	a4,8(s0)
    104c:	28071263          	bnez	a4,12d0 <draw_board+0x3cc>
    1050:	00944703          	lbu	a4,9(s0)
    1054:	2c071463          	bnez	a4,131c <draw_board+0x418>
    1058:	00a40413          	addi	s0,s0,10
    105c:	31340663          	beq	s0,s3,1368 <draw_board+0x464>
    1060:	00044703          	lbu	a4,0(s0)
    1064:	008b04b3          	add	s1,s6,s0
    1068:	008a0933          	add	s2,s4,s0
    106c:	fa0702e3          	beqz	a4,1010 <draw_board+0x10c>
    1070:	00900693          	li	a3,9
    1074:	00068613          	mv	a2,a3
    1078:	00090593          	mv	a1,s2
    107c:	06700513          	li	a0,103
    1080:	a7cff0ef          	jal	2fc <draw_tile>
    1084:	00048593          	mv	a1,s1
    1088:	04900713          	li	a4,73
    108c:	00100693          	li	a3,1
    1090:	00a00613          	li	a2,10
    1094:	06600513          	li	a0,102
    1098:	a64ff0ef          	jal	2fc <draw_tile>
    109c:	04900713          	li	a4,73
    10a0:	00048593          	mv	a1,s1
    10a4:	00a00693          	li	a3,10
    10a8:	00100613          	li	a2,1
    10ac:	06600513          	li	a0,102
    10b0:	a4cff0ef          	jal	2fc <draw_tile>
    10b4:	00144703          	lbu	a4,1(s0)
    10b8:	f60700e3          	beqz	a4,1018 <draw_board+0x114>
    10bc:	00900693          	li	a3,9
    10c0:	00068613          	mv	a2,a3
    10c4:	00090593          	mv	a1,s2
    10c8:	07100513          	li	a0,113
    10cc:	a30ff0ef          	jal	2fc <draw_tile>
    10d0:	00048593          	mv	a1,s1
    10d4:	04900713          	li	a4,73
    10d8:	00100693          	li	a3,1
    10dc:	00a00613          	li	a2,10
    10e0:	07000513          	li	a0,112
    10e4:	a18ff0ef          	jal	2fc <draw_tile>
    10e8:	04900713          	li	a4,73
    10ec:	00048593          	mv	a1,s1
    10f0:	00a00693          	li	a3,10
    10f4:	00100613          	li	a2,1
    10f8:	07000513          	li	a0,112
    10fc:	a00ff0ef          	jal	2fc <draw_tile>
    1100:	00244703          	lbu	a4,2(s0)
    1104:	f0070ee3          	beqz	a4,1020 <draw_board+0x11c>
    1108:	00900693          	li	a3,9
    110c:	00068613          	mv	a2,a3
    1110:	00090593          	mv	a1,s2
    1114:	07b00513          	li	a0,123
    1118:	9e4ff0ef          	jal	2fc <draw_tile>
    111c:	00048593          	mv	a1,s1
    1120:	04900713          	li	a4,73
    1124:	00100693          	li	a3,1
    1128:	00a00613          	li	a2,10
    112c:	07a00513          	li	a0,122
    1130:	9ccff0ef          	jal	2fc <draw_tile>
    1134:	04900713          	li	a4,73
    1138:	00048593          	mv	a1,s1
    113c:	00a00693          	li	a3,10
    1140:	00100613          	li	a2,1
    1144:	07a00513          	li	a0,122
    1148:	9b4ff0ef          	jal	2fc <draw_tile>
    114c:	00344703          	lbu	a4,3(s0)
    1150:	ec070ce3          	beqz	a4,1028 <draw_board+0x124>
    1154:	00900693          	li	a3,9
    1158:	00068613          	mv	a2,a3
    115c:	00090593          	mv	a1,s2
    1160:	08500513          	li	a0,133
    1164:	998ff0ef          	jal	2fc <draw_tile>
    1168:	00048593          	mv	a1,s1
    116c:	04900713          	li	a4,73
    1170:	00100693          	li	a3,1
    1174:	00a00613          	li	a2,10
    1178:	08400513          	li	a0,132
    117c:	980ff0ef          	jal	2fc <draw_tile>
    1180:	04900713          	li	a4,73
    1184:	00048593          	mv	a1,s1
    1188:	00a00693          	li	a3,10
    118c:	00100613          	li	a2,1
    1190:	08400513          	li	a0,132
    1194:	968ff0ef          	jal	2fc <draw_tile>
    1198:	00444703          	lbu	a4,4(s0)
    119c:	e8070ae3          	beqz	a4,1030 <draw_board+0x12c>
    11a0:	00900693          	li	a3,9
    11a4:	00068613          	mv	a2,a3
    11a8:	00090593          	mv	a1,s2
    11ac:	08f00513          	li	a0,143
    11b0:	94cff0ef          	jal	2fc <draw_tile>
    11b4:	00048593          	mv	a1,s1
    11b8:	04900713          	li	a4,73
    11bc:	00100693          	li	a3,1
    11c0:	00a00613          	li	a2,10
    11c4:	08e00513          	li	a0,142
    11c8:	934ff0ef          	jal	2fc <draw_tile>
    11cc:	04900713          	li	a4,73
    11d0:	00048593          	mv	a1,s1
    11d4:	00a00693          	li	a3,10
    11d8:	00100613          	li	a2,1
    11dc:	08e00513          	li	a0,142
    11e0:	91cff0ef          	jal	2fc <draw_tile>
    11e4:	00544703          	lbu	a4,5(s0)
    11e8:	e40708e3          	beqz	a4,1038 <draw_board+0x134>
    11ec:	00900693          	li	a3,9
    11f0:	00068613          	mv	a2,a3
    11f4:	00090593          	mv	a1,s2
    11f8:	09900513          	li	a0,153
    11fc:	900ff0ef          	jal	2fc <draw_tile>
    1200:	00048593          	mv	a1,s1
    1204:	04900713          	li	a4,73
    1208:	00100693          	li	a3,1
    120c:	00a00613          	li	a2,10
    1210:	09800513          	li	a0,152
    1214:	8e8ff0ef          	jal	2fc <draw_tile>
    1218:	04900713          	li	a4,73
    121c:	00048593          	mv	a1,s1
    1220:	00a00693          	li	a3,10
    1224:	00100613          	li	a2,1
    1228:	09800513          	li	a0,152
    122c:	8d0ff0ef          	jal	2fc <draw_tile>
    1230:	00644703          	lbu	a4,6(s0)
    1234:	e00706e3          	beqz	a4,1040 <draw_board+0x13c>
    1238:	00900693          	li	a3,9
    123c:	00068613          	mv	a2,a3
    1240:	00090593          	mv	a1,s2
    1244:	0a300513          	li	a0,163
    1248:	8b4ff0ef          	jal	2fc <draw_tile>
    124c:	00048593          	mv	a1,s1
    1250:	04900713          	li	a4,73
    1254:	00100693          	li	a3,1
    1258:	00a00613          	li	a2,10
    125c:	0a200513          	li	a0,162
    1260:	89cff0ef          	jal	2fc <draw_tile>
    1264:	04900713          	li	a4,73
    1268:	00048593          	mv	a1,s1
    126c:	00a00693          	li	a3,10
    1270:	00100613          	li	a2,1
    1274:	0a200513          	li	a0,162
    1278:	884ff0ef          	jal	2fc <draw_tile>
    127c:	00744703          	lbu	a4,7(s0)
    1280:	dc0704e3          	beqz	a4,1048 <draw_board+0x144>
    1284:	00900693          	li	a3,9
    1288:	00068613          	mv	a2,a3
    128c:	00090593          	mv	a1,s2
    1290:	0ad00513          	li	a0,173
    1294:	868ff0ef          	jal	2fc <draw_tile>
    1298:	00048593          	mv	a1,s1
    129c:	04900713          	li	a4,73
    12a0:	00100693          	li	a3,1
    12a4:	00a00613          	li	a2,10
    12a8:	0ac00513          	li	a0,172
    12ac:	850ff0ef          	jal	2fc <draw_tile>
    12b0:	04900713          	li	a4,73
    12b4:	00048593          	mv	a1,s1
    12b8:	00a00693          	li	a3,10
    12bc:	00100613          	li	a2,1
    12c0:	0ac00513          	li	a0,172
    12c4:	838ff0ef          	jal	2fc <draw_tile>
    12c8:	00844703          	lbu	a4,8(s0)
    12cc:	d80702e3          	beqz	a4,1050 <draw_board+0x14c>
    12d0:	00900693          	li	a3,9
    12d4:	00068613          	mv	a2,a3
    12d8:	00090593          	mv	a1,s2
    12dc:	0b700513          	li	a0,183
    12e0:	81cff0ef          	jal	2fc <draw_tile>
    12e4:	00048593          	mv	a1,s1
    12e8:	04900713          	li	a4,73
    12ec:	00100693          	li	a3,1
    12f0:	00a00613          	li	a2,10
    12f4:	0b600513          	li	a0,182
    12f8:	804ff0ef          	jal	2fc <draw_tile>
    12fc:	04900713          	li	a4,73
    1300:	00048593          	mv	a1,s1
    1304:	00a00693          	li	a3,10
    1308:	00100613          	li	a2,1
    130c:	0b600513          	li	a0,182
    1310:	fedfe0ef          	jal	2fc <draw_tile>
    1314:	00944703          	lbu	a4,9(s0)
    1318:	d40700e3          	beqz	a4,1058 <draw_board+0x154>
    131c:	00900693          	li	a3,9
    1320:	00068613          	mv	a2,a3
    1324:	00090593          	mv	a1,s2
    1328:	0c100513          	li	a0,193
    132c:	fd1fe0ef          	jal	2fc <draw_tile>
    1330:	00048593          	mv	a1,s1
    1334:	04900713          	li	a4,73
    1338:	00100693          	li	a3,1
    133c:	00a00613          	li	a2,10
    1340:	0c000513          	li	a0,192
    1344:	fb9fe0ef          	jal	2fc <draw_tile>
    1348:	00048593          	mv	a1,s1
    134c:	04900713          	li	a4,73
    1350:	00a00693          	li	a3,10
    1354:	00100613          	li	a2,1
    1358:	0c000513          	li	a0,192
    135c:	00a40413          	addi	s0,s0,10
    1360:	f9dfe0ef          	jal	2fc <draw_tile>
    1364:	cf341ee3          	bne	s0,s3,1060 <draw_board+0x15c>
    1368:	008aa703          	lw	a4,8(s5)
    136c:	00072903          	lw	s2,0(a4)
    1370:	0f205463          	blez	s2,1458 <draw_board+0x554>
    1374:	00cac783          	lbu	a5,12(s5)
    1378:	00ca8413          	addi	s0,s5,12
    137c:	00000493          	li	s1,0
    1380:	06079463          	bnez	a5,13e8 <draw_board+0x4e4>
    1384:	00100793          	li	a5,1
    1388:	02f90663          	beq	s2,a5,13b4 <draw_board+0x4b0>
    138c:	00144783          	lbu	a5,1(s0)
    1390:	1a079463          	bnez	a5,1538 <draw_board+0x634>
    1394:	00200793          	li	a5,2
    1398:	00f90e63          	beq	s2,a5,13b4 <draw_board+0x4b0>
    139c:	00244783          	lbu	a5,2(s0)
    13a0:	20079863          	bnez	a5,15b0 <draw_board+0x6ac>
    13a4:	00300793          	li	a5,3
    13a8:	00f90663          	beq	s2,a5,13b4 <draw_board+0x4b0>
    13ac:	00344783          	lbu	a5,3(s0)
    13b0:	26079c63          	bnez	a5,1628 <draw_board+0x724>
    13b4:	00148493          	addi	s1,s1,1
    13b8:	0a990063          	beq	s2,s1,1458 <draw_board+0x554>
    13bc:	00444783          	lbu	a5,4(s0)
    13c0:	00440413          	addi	s0,s0,4
    13c4:	00100713          	li	a4,1
    13c8:	00079e63          	bnez	a5,13e4 <draw_board+0x4e0>
    13cc:	fce910e3          	bne	s2,a4,138c <draw_board+0x488>
    13d0:	00444783          	lbu	a5,4(s0)
    13d4:	00440413          	addi	s0,s0,4
    13d8:	00148493          	addi	s1,s1,1
    13dc:	00100713          	li	a4,1
    13e0:	fe0786e3          	beqz	a5,13cc <draw_board+0x4c8>
    13e4:	008aa703          	lw	a4,8(s5)
    13e8:	000aa783          	lw	a5,0(s5)
    13ec:	004aa683          	lw	a3,4(s5)
    13f0:	01472703          	lw	a4,20(a4)
    13f4:	00f487b3          	add	a5,s1,a5
    13f8:	00279a13          	slli	s4,a5,0x2
    13fc:	00269993          	slli	s3,a3,0x2
    1400:	00fa0a33          	add	s4,s4,a5
    1404:	00d989b3          	add	s3,s3,a3
    1408:	001a1a13          	slli	s4,s4,0x1
    140c:	00199993          	slli	s3,s3,0x1
    1410:	00900693          	li	a3,9
    1414:	015a0593          	addi	a1,s4,21
    1418:	06798513          	addi	a0,s3,103
    141c:	00068613          	mv	a2,a3
    1420:	eddfe0ef          	jal	2fc <draw_tile>
    1424:	014a0593          	addi	a1,s4,20
    1428:	06698513          	addi	a0,s3,102
    142c:	04900713          	li	a4,73
    1430:	00100693          	li	a3,1
    1434:	00a00613          	li	a2,10
    1438:	ec5fe0ef          	jal	2fc <draw_tile>
    143c:	014a0593          	addi	a1,s4,20
    1440:	06698513          	addi	a0,s3,102
    1444:	04900713          	li	a4,73
    1448:	00a00693          	li	a3,10
    144c:	00100613          	li	a2,1
    1450:	eadfe0ef          	jal	2fc <draw_tile>
    1454:	f31ff06f          	j	1384 <draw_board+0x480>
    1458:	0ff00713          	li	a4,255
    145c:	00100693          	li	a3,1
    1460:	05200613          	li	a2,82
    1464:	01300593          	li	a1,19
    1468:	0dd00513          	li	a0,221
    146c:	e91fe0ef          	jal	2fc <draw_tile>
    1470:	0ff00713          	li	a4,255
    1474:	00100693          	li	a3,1
    1478:	05200613          	li	a2,82
    147c:	03c00593          	li	a1,60
    1480:	0dd00513          	li	a0,221
    1484:	e79fe0ef          	jal	2fc <draw_tile>
    1488:	0ff00713          	li	a4,255
    148c:	02800693          	li	a3,40
    1490:	00100613          	li	a2,1
    1494:	01400593          	li	a1,20
    1498:	0dd00513          	li	a0,221
    149c:	e61fe0ef          	jal	2fc <draw_tile>
    14a0:	0ff00713          	li	a4,255
    14a4:	02800693          	li	a3,40
    14a8:	00100613          	li	a2,1
    14ac:	01400593          	li	a1,20
    14b0:	12e00513          	li	a0,302
    14b4:	e49fe0ef          	jal	2fc <draw_tile>
    14b8:	02000713          	li	a4,32
    14bc:	02800693          	li	a3,40
    14c0:	05000613          	li	a2,80
    14c4:	01400593          	li	a1,20
    14c8:	0de00513          	li	a0,222
    14cc:	e31fe0ef          	jal	2fc <draw_tile>
    14d0:	04900713          	li	a4,73
    14d4:	00800693          	li	a3,8
    14d8:	05000613          	li	a2,80
    14dc:	01400593          	li	a1,20
    14e0:	0de00513          	li	a0,222
    14e4:	e19fe0ef          	jal	2fc <draw_tile>
    14e8:	0ff00613          	li	a2,255
    14ec:	01e00593          	li	a1,30
    14f0:	0e300513          	li	a0,227
    14f4:	d34ff0ef          	jal	a28 <draw_score_label>
    14f8:	000b8513          	mv	a0,s7
    14fc:	0ff00693          	li	a3,255
    1500:	02b00613          	li	a2,43
    1504:	0e300593          	li	a1,227
    1508:	8bcff0ef          	jal	5c4 <draw_number>
    150c:	02812403          	lw	s0,40(sp)
    1510:	02c12083          	lw	ra,44(sp)
    1514:	02412483          	lw	s1,36(sp)
    1518:	02012903          	lw	s2,32(sp)
    151c:	01c12983          	lw	s3,28(sp)
    1520:	01812a03          	lw	s4,24(sp)
    1524:	01412a83          	lw	s5,20(sp)
    1528:	01012b03          	lw	s6,16(sp)
    152c:	00c12b83          	lw	s7,12(sp)
    1530:	03010113          	addi	sp,sp,48
    1534:	e21fe06f          	j	354 <swap_buffers_blocking>
    1538:	004aa703          	lw	a4,4(s5)
    153c:	000aa783          	lw	a5,0(s5)
    1540:	008aa683          	lw	a3,8(s5)
    1544:	00170713          	addi	a4,a4,1
    1548:	00f487b3          	add	a5,s1,a5
    154c:	00279a13          	slli	s4,a5,0x2
    1550:	00271993          	slli	s3,a4,0x2
    1554:	00fa0a33          	add	s4,s4,a5
    1558:	00e989b3          	add	s3,s3,a4
    155c:	0146a703          	lw	a4,20(a3)
    1560:	00199993          	slli	s3,s3,0x1
    1564:	001a1a13          	slli	s4,s4,0x1
    1568:	00900693          	li	a3,9
    156c:	06798513          	addi	a0,s3,103
    1570:	015a0593          	addi	a1,s4,21
    1574:	00068613          	mv	a2,a3
    1578:	d85fe0ef          	jal	2fc <draw_tile>
    157c:	014a0593          	addi	a1,s4,20
    1580:	06698513          	addi	a0,s3,102
    1584:	04900713          	li	a4,73
    1588:	00100693          	li	a3,1
    158c:	00a00613          	li	a2,10
    1590:	d6dfe0ef          	jal	2fc <draw_tile>
    1594:	014a0593          	addi	a1,s4,20
    1598:	06698513          	addi	a0,s3,102
    159c:	04900713          	li	a4,73
    15a0:	00a00693          	li	a3,10
    15a4:	00100613          	li	a2,1
    15a8:	d55fe0ef          	jal	2fc <draw_tile>
    15ac:	de9ff06f          	j	1394 <draw_board+0x490>
    15b0:	004aa703          	lw	a4,4(s5)
    15b4:	000aa783          	lw	a5,0(s5)
    15b8:	008aa683          	lw	a3,8(s5)
    15bc:	00270713          	addi	a4,a4,2
    15c0:	00f487b3          	add	a5,s1,a5
    15c4:	00279a13          	slli	s4,a5,0x2
    15c8:	00271993          	slli	s3,a4,0x2
    15cc:	00fa0a33          	add	s4,s4,a5
    15d0:	00e989b3          	add	s3,s3,a4
    15d4:	0146a703          	lw	a4,20(a3)
    15d8:	00199993          	slli	s3,s3,0x1
    15dc:	001a1a13          	slli	s4,s4,0x1
    15e0:	00900693          	li	a3,9
    15e4:	06798513          	addi	a0,s3,103
    15e8:	015a0593          	addi	a1,s4,21
    15ec:	00068613          	mv	a2,a3
    15f0:	d0dfe0ef          	jal	2fc <draw_tile>
    15f4:	014a0593          	addi	a1,s4,20
    15f8:	06698513          	addi	a0,s3,102
    15fc:	04900713          	li	a4,73
    1600:	00100693          	li	a3,1
    1604:	00a00613          	li	a2,10
    1608:	cf5fe0ef          	jal	2fc <draw_tile>
    160c:	014a0593          	addi	a1,s4,20
    1610:	06698513          	addi	a0,s3,102
    1614:	04900713          	li	a4,73
    1618:	00a00693          	li	a3,10
    161c:	00100613          	li	a2,1
    1620:	cddfe0ef          	jal	2fc <draw_tile>
    1624:	d81ff06f          	j	13a4 <draw_board+0x4a0>
    1628:	004aa703          	lw	a4,4(s5)
    162c:	000aa783          	lw	a5,0(s5)
    1630:	008aa683          	lw	a3,8(s5)
    1634:	00370713          	addi	a4,a4,3
    1638:	00f487b3          	add	a5,s1,a5
    163c:	00279a13          	slli	s4,a5,0x2
    1640:	00271993          	slli	s3,a4,0x2
    1644:	00fa0a33          	add	s4,s4,a5
    1648:	00e989b3          	add	s3,s3,a4
    164c:	0146a703          	lw	a4,20(a3)
    1650:	00199993          	slli	s3,s3,0x1
    1654:	001a1a13          	slli	s4,s4,0x1
    1658:	00900693          	li	a3,9
    165c:	06798513          	addi	a0,s3,103
    1660:	015a0593          	addi	a1,s4,21
    1664:	00068613          	mv	a2,a3
    1668:	c95fe0ef          	jal	2fc <draw_tile>
    166c:	014a0593          	addi	a1,s4,20
    1670:	06698513          	addi	a0,s3,102
    1674:	04900713          	li	a4,73
    1678:	00100693          	li	a3,1
    167c:	00a00613          	li	a2,10
    1680:	c7dfe0ef          	jal	2fc <draw_tile>
    1684:	014a0593          	addi	a1,s4,20
    1688:	06698513          	addi	a0,s3,102
    168c:	04900713          	li	a4,73
    1690:	00a00693          	li	a3,10
    1694:	00100613          	li	a2,1
    1698:	c65fe0ef          	jal	2fc <draw_tile>
    169c:	d19ff06f          	j	13b4 <draw_board+0x4b0>

000016a0 <spawnpiece>:
    16a0:	000038b7          	lui	a7,0x3
    16a4:	d848a703          	lw	a4,-636(a7) # 2d84 <seed>
    16a8:	41c657b7          	lui	a5,0x41c65
    16ac:	e6d78793          	addi	a5,a5,-403 # 41c64e6d <_stack_end+0x41b61e91>
    16b0:	02f70733          	mul	a4,a4,a5
    16b4:	00003637          	lui	a2,0x3
    16b8:	03960613          	addi	a2,a2,57 # 3039 <pieces+0x239>
    16bc:	000036b7          	lui	a3,0x3
    16c0:	e0068813          	addi	a6,a3,-512 # 2e00 <pieces>
    16c4:	924927b7          	lui	a5,0x92492
    16c8:	49378793          	addi	a5,a5,1171 # 92492493 <_stack_end+0x9238f4b7>
    16cc:	00a00593          	li	a1,10
    16d0:	00052023          	sw	zero,0(a0)
    16d4:	00c70733          	add	a4,a4,a2
    16d8:	00171693          	slli	a3,a4,0x1
    16dc:	d8e8a223          	sw	a4,-636(a7)
    16e0:	0116d713          	srli	a4,a3,0x11
    16e4:	02f717b3          	mulh	a5,a4,a5
    16e8:	00e787b3          	add	a5,a5,a4
    16ec:	4027d793          	srai	a5,a5,0x2
    16f0:	00379693          	slli	a3,a5,0x3
    16f4:	40f687b3          	sub	a5,a3,a5
    16f8:	40f707b3          	sub	a5,a4,a5
    16fc:	00379693          	slli	a3,a5,0x3
    1700:	40f686b3          	sub	a3,a3,a5
    1704:	00269693          	slli	a3,a3,0x2
    1708:	00d80633          	add	a2,a6,a3
    170c:	00062783          	lw	a5,0(a2)
    1710:	00c52423          	sw	a2,8(a0)
    1714:	40f585b3          	sub	a1,a1,a5
    1718:	01f5d713          	srli	a4,a1,0x1f
    171c:	00b70733          	add	a4,a4,a1
    1720:	40175713          	srai	a4,a4,0x1
    1724:	00e52223          	sw	a4,4(a0)
    1728:	34f05263          	blez	a5,1a6c <spawnpiece+0x3cc>
    172c:	00464583          	lbu	a1,4(a2)
    1730:	ff010113          	addi	sp,sp,-16
    1734:	00112623          	sw	ra,12(sp)
    1738:	00812423          	sw	s0,8(sp)
    173c:	00100893          	li	a7,1
    1740:	00b50623          	sb	a1,12(a0)
    1744:	07178063          	beq	a5,a7,17a4 <spawnpiece+0x104>
    1748:	00564583          	lbu	a1,5(a2)
    174c:	00200893          	li	a7,2
    1750:	00b506a3          	sb	a1,13(a0)
    1754:	31178e63          	beq	a5,a7,1a70 <spawnpiece+0x3d0>
    1758:	00664583          	lbu	a1,6(a2)
    175c:	00300893          	li	a7,3
    1760:	00b50723          	sb	a1,14(a0)
    1764:	31178e63          	beq	a5,a7,1a80 <spawnpiece+0x3e0>
    1768:	00764303          	lbu	t1,7(a2)
    176c:	00d808b3          	add	a7,a6,a3
    1770:	00088593          	mv	a1,a7
    1774:	006507a3          	sb	t1,15(a0)
    1778:	0088d883          	lhu	a7,8(a7)
    177c:	00058693          	mv	a3,a1
    1780:	01151823          	sh	a7,16(a0)
    1784:	00a65803          	lhu	a6,10(a2)
    1788:	01051923          	sh	a6,18(a0)
    178c:	00c5d583          	lhu	a1,12(a1)
    1790:	00b51a23          	sh	a1,20(a0)
    1794:	00e65603          	lhu	a2,14(a2)
    1798:	00c51b23          	sh	a2,22(a0)
    179c:	0106a683          	lw	a3,16(a3)
    17a0:	00d52c23          	sw	a3,24(a0)
    17a4:	00003437          	lui	s0,0x3
    17a8:	c7840413          	addi	s0,s0,-904 # 2c78 <board>
    17ac:	00e405b3          	add	a1,s0,a4
    17b0:	00c50813          	addi	a6,a0,12
    17b4:	00100893          	li	a7,1
    17b8:	00058613          	mv	a2,a1
    17bc:	00080693          	mv	a3,a6
    17c0:	00088e13          	mv	t3,a7
    17c4:	00200e93          	li	t4,2
    17c8:	00300f13          	li	t5,3
    17cc:	0006c303          	lbu	t1,0(a3)
    17d0:	00030663          	beqz	t1,17dc <spawnpiece+0x13c>
    17d4:	00a64303          	lbu	t1,10(a2)
    17d8:	04031a63          	bnez	t1,182c <spawnpiece+0x18c>
    17dc:	03c78e63          	beq	a5,t3,1818 <spawnpiece+0x178>
    17e0:	0016c303          	lbu	t1,1(a3)
    17e4:	00030663          	beqz	t1,17f0 <spawnpiece+0x150>
    17e8:	00b64303          	lbu	t1,11(a2)
    17ec:	04031063          	bnez	t1,182c <spawnpiece+0x18c>
    17f0:	03d78463          	beq	a5,t4,1818 <spawnpiece+0x178>
    17f4:	0026c303          	lbu	t1,2(a3)
    17f8:	00030663          	beqz	t1,1804 <spawnpiece+0x164>
    17fc:	00c64303          	lbu	t1,12(a2)
    1800:	02031663          	bnez	t1,182c <spawnpiece+0x18c>
    1804:	01e78a63          	beq	a5,t5,1818 <spawnpiece+0x178>
    1808:	0036c303          	lbu	t1,3(a3)
    180c:	00030663          	beqz	t1,1818 <spawnpiece+0x178>
    1810:	00d64303          	lbu	t1,13(a2)
    1814:	00031c63          	bnez	t1,182c <spawnpiece+0x18c>
    1818:	00468693          	addi	a3,a3,4
    181c:	00a60613          	addi	a2,a2,10
    1820:	19178263          	beq	a5,a7,19a4 <spawnpiece+0x304>
    1824:	00188893          	addi	a7,a7,1
    1828:	fa5ff06f          	j	17cc <spawnpiece+0x12c>
    182c:	fff70f13          	addi	t5,a4,-1
    1830:	00080693          	mv	a3,a6
    1834:	00000893          	li	a7,0
    1838:	00100313          	li	t1,1
    183c:	00200e13          	li	t3,2
    1840:	00300e93          	li	t4,3
    1844:	0006c603          	lbu	a2,0(a3)
    1848:	16060663          	beqz	a2,19b4 <spawnpiece+0x314>
    184c:	40e58633          	sub	a2,a1,a4
    1850:	01e60633          	add	a2,a2,t5
    1854:	00064603          	lbu	a2,0(a2)
    1858:	14060e63          	beqz	a2,19b4 <spawnpiece+0x314>
    185c:	00170613          	addi	a2,a4,1
    1860:	00c406b3          	add	a3,s0,a2
    1864:	00000893          	li	a7,0
    1868:	00100313          	li	t1,1
    186c:	00200e13          	li	t3,2
    1870:	00300e93          	li	t4,3
    1874:	00084583          	lbu	a1,0(a6)
    1878:	18058663          	beqz	a1,1a04 <spawnpiece+0x364>
    187c:	0006c583          	lbu	a1,0(a3)
    1880:	18058263          	beqz	a1,1a04 <spawnpiece+0x364>
    1884:	00912223          	sw	s1,4(sp)
    1888:	00050493          	mv	s1,a0
    188c:	00003537          	lui	a0,0x3
    1890:	f0850513          	addi	a0,a0,-248 # 2f08 <pieces+0x108>
    1894:	72d000ef          	jal	27c0 <print>
    1898:	00003537          	lui	a0,0x3
    189c:	f1850513          	addi	a0,a0,-232 # 2f18 <pieces+0x118>
    18a0:	721000ef          	jal	27c0 <print>
    18a4:	0080006f          	j	18ac <spawnpiece+0x20c>
    18a8:	b98ff0ef          	jal	c40 <delay>
    18ac:	00000513          	li	a0,0
    18b0:	491000ef          	jal	2540 <get_btn>
    18b4:	00050793          	mv	a5,a0
    18b8:	00a00513          	li	a0,10
    18bc:	fe0786e3          	beqz	a5,18a8 <spawnpiece+0x208>
    18c0:	000037b7          	lui	a5,0x3
    18c4:	00048513          	mv	a0,s1
    18c8:	00042023          	sw	zero,0(s0)
    18cc:	00042223          	sw	zero,4(s0)
    18d0:	00042423          	sw	zero,8(s0)
    18d4:	00042623          	sw	zero,12(s0)
    18d8:	00042823          	sw	zero,16(s0)
    18dc:	00042a23          	sw	zero,20(s0)
    18e0:	00042c23          	sw	zero,24(s0)
    18e4:	00042e23          	sw	zero,28(s0)
    18e8:	02042023          	sw	zero,32(s0)
    18ec:	02042223          	sw	zero,36(s0)
    18f0:	02042423          	sw	zero,40(s0)
    18f4:	02042623          	sw	zero,44(s0)
    18f8:	02042823          	sw	zero,48(s0)
    18fc:	02042a23          	sw	zero,52(s0)
    1900:	02042c23          	sw	zero,56(s0)
    1904:	02042e23          	sw	zero,60(s0)
    1908:	04042023          	sw	zero,64(s0)
    190c:	04042223          	sw	zero,68(s0)
    1910:	04042423          	sw	zero,72(s0)
    1914:	04042623          	sw	zero,76(s0)
    1918:	04042823          	sw	zero,80(s0)
    191c:	04042a23          	sw	zero,84(s0)
    1920:	04042c23          	sw	zero,88(s0)
    1924:	04042e23          	sw	zero,92(s0)
    1928:	06042023          	sw	zero,96(s0)
    192c:	06042223          	sw	zero,100(s0)
    1930:	06042423          	sw	zero,104(s0)
    1934:	06042623          	sw	zero,108(s0)
    1938:	06042823          	sw	zero,112(s0)
    193c:	06042a23          	sw	zero,116(s0)
    1940:	06042c23          	sw	zero,120(s0)
    1944:	06042e23          	sw	zero,124(s0)
    1948:	08042023          	sw	zero,128(s0)
    194c:	d807a423          	sw	zero,-632(a5) # 2d88 <totallinescleard>
    1950:	08042223          	sw	zero,132(s0)
    1954:	08042423          	sw	zero,136(s0)
    1958:	08042623          	sw	zero,140(s0)
    195c:	08042823          	sw	zero,144(s0)
    1960:	08042a23          	sw	zero,148(s0)
    1964:	08042c23          	sw	zero,152(s0)
    1968:	08042e23          	sw	zero,156(s0)
    196c:	0a042023          	sw	zero,160(s0)
    1970:	0a042223          	sw	zero,164(s0)
    1974:	0a042423          	sw	zero,168(s0)
    1978:	0a042623          	sw	zero,172(s0)
    197c:	0a042823          	sw	zero,176(s0)
    1980:	0a042a23          	sw	zero,180(s0)
    1984:	0a042c23          	sw	zero,184(s0)
    1988:	0a042e23          	sw	zero,188(s0)
    198c:	0c042023          	sw	zero,192(s0)
    1990:	0c042223          	sw	zero,196(s0)
    1994:	d0dff0ef          	jal	16a0 <spawnpiece>
    1998:	00412483          	lw	s1,4(sp)
    199c:	000037b7          	lui	a5,0x3
    19a0:	d807a623          	sw	zero,-628(a5) # 2d8c <score>
    19a4:	00c12083          	lw	ra,12(sp)
    19a8:	00812403          	lw	s0,8(sp)
    19ac:	01010113          	addi	sp,sp,16
    19b0:	00008067          	ret
    19b4:	02678e63          	beq	a5,t1,19f0 <spawnpiece+0x350>
    19b8:	0016c603          	lbu	a2,1(a3)
    19bc:	00060663          	beqz	a2,19c8 <spawnpiece+0x328>
    19c0:	0005c603          	lbu	a2,0(a1)
    19c4:	e8061ce3          	bnez	a2,185c <spawnpiece+0x1bc>
    19c8:	03c78463          	beq	a5,t3,19f0 <spawnpiece+0x350>
    19cc:	0026c603          	lbu	a2,2(a3)
    19d0:	00060663          	beqz	a2,19dc <spawnpiece+0x33c>
    19d4:	0015c603          	lbu	a2,1(a1)
    19d8:	e80612e3          	bnez	a2,185c <spawnpiece+0x1bc>
    19dc:	01d78a63          	beq	a5,t4,19f0 <spawnpiece+0x350>
    19e0:	0036c603          	lbu	a2,3(a3)
    19e4:	00060663          	beqz	a2,19f0 <spawnpiece+0x350>
    19e8:	0025c603          	lbu	a2,2(a1)
    19ec:	e60618e3          	bnez	a2,185c <spawnpiece+0x1bc>
    19f0:	00188893          	addi	a7,a7,1
    19f4:	00468693          	addi	a3,a3,4
    19f8:	00a58593          	addi	a1,a1,10
    19fc:	e51794e3          	bne	a5,a7,1844 <spawnpiece+0x1a4>
    1a00:	fa5ff06f          	j	19a4 <spawnpiece+0x304>
    1a04:	04678a63          	beq	a5,t1,1a58 <spawnpiece+0x3b8>
    1a08:	00184583          	lbu	a1,1(a6)
    1a0c:	00058a63          	beqz	a1,1a20 <spawnpiece+0x380>
    1a10:	40c685b3          	sub	a1,a3,a2
    1a14:	00e585b3          	add	a1,a1,a4
    1a18:	0025c583          	lbu	a1,2(a1)
    1a1c:	e60594e3          	bnez	a1,1884 <spawnpiece+0x1e4>
    1a20:	03c78c63          	beq	a5,t3,1a58 <spawnpiece+0x3b8>
    1a24:	00284583          	lbu	a1,2(a6)
    1a28:	00058a63          	beqz	a1,1a3c <spawnpiece+0x39c>
    1a2c:	40c685b3          	sub	a1,a3,a2
    1a30:	00e585b3          	add	a1,a1,a4
    1a34:	0035c583          	lbu	a1,3(a1)
    1a38:	e40596e3          	bnez	a1,1884 <spawnpiece+0x1e4>
    1a3c:	01d78e63          	beq	a5,t4,1a58 <spawnpiece+0x3b8>
    1a40:	00384583          	lbu	a1,3(a6)
    1a44:	00058a63          	beqz	a1,1a58 <spawnpiece+0x3b8>
    1a48:	40c685b3          	sub	a1,a3,a2
    1a4c:	00e585b3          	add	a1,a1,a4
    1a50:	0045c583          	lbu	a1,4(a1)
    1a54:	e20598e3          	bnez	a1,1884 <spawnpiece+0x1e4>
    1a58:	00188893          	addi	a7,a7,1
    1a5c:	00480813          	addi	a6,a6,4
    1a60:	00a68693          	addi	a3,a3,10
    1a64:	e11798e3          	bne	a5,a7,1874 <spawnpiece+0x1d4>
    1a68:	f3dff06f          	j	19a4 <spawnpiece+0x304>
    1a6c:	00008067          	ret
    1a70:	00d806b3          	add	a3,a6,a3
    1a74:	0086d683          	lhu	a3,8(a3)
    1a78:	00d51823          	sh	a3,16(a0)
    1a7c:	d29ff06f          	j	17a4 <spawnpiece+0x104>
    1a80:	00d805b3          	add	a1,a6,a3
    1a84:	0085d883          	lhu	a7,8(a1)
    1a88:	00a64583          	lbu	a1,10(a2)
    1a8c:	00d806b3          	add	a3,a6,a3
    1a90:	01151823          	sh	a7,16(a0)
    1a94:	00b50923          	sb	a1,18(a0)
    1a98:	00c6d583          	lhu	a1,12(a3)
    1a9c:	00e64683          	lbu	a3,14(a2)
    1aa0:	00b51a23          	sh	a1,20(a0)
    1aa4:	00d50b23          	sb	a3,22(a0)
    1aa8:	cfdff06f          	j	17a4 <spawnpiece+0x104>

00001aac <canMove>:
    1aac:	00052603          	lw	a2,0(a0)
    1ab0:	00452803          	lw	a6,4(a0)
    1ab4:	0e059863          	bnez	a1,1ba4 <canMove+0xf8>
    1ab8:	fff80813          	addi	a6,a6,-1
    1abc:	00852783          	lw	a5,8(a0)
    1ac0:	0007a883          	lw	a7,0(a5)
    1ac4:	0d105c63          	blez	a7,1b9c <canMove+0xf0>
    1ac8:	00261793          	slli	a5,a2,0x2
    1acc:	00003737          	lui	a4,0x3
    1ad0:	00c787b3          	add	a5,a5,a2
    1ad4:	c7870713          	addi	a4,a4,-904 # 2c78 <board>
    1ad8:	00179793          	slli	a5,a5,0x1
    1adc:	01070733          	add	a4,a4,a6
    1ae0:	00f70733          	add	a4,a4,a5
    1ae4:	00a83793          	sltiu	a5,a6,10
    1ae8:	00c50513          	addi	a0,a0,12
    1aec:	00c88f33          	add	t5,a7,a2
    1af0:	0017c693          	xori	a3,a5,1
    1af4:	00100313          	li	t1,1
    1af8:	00200e13          	li	t3,2
    1afc:	00300e93          	li	t4,3
    1b00:	00054583          	lbu	a1,0(a0)
    1b04:	01463793          	sltiu	a5,a2,20
    1b08:	0017c793          	xori	a5,a5,1
    1b0c:	00058a63          	beqz	a1,1b20 <canMove+0x74>
    1b10:	0a079663          	bnez	a5,1bbc <canMove+0x110>
    1b14:	0a069463          	bnez	a3,1bbc <canMove+0x110>
    1b18:	00074583          	lbu	a1,0(a4)
    1b1c:	0a059063          	bnez	a1,1bbc <canMove+0x110>
    1b20:	06688663          	beq	a7,t1,1b8c <canMove+0xe0>
    1b24:	00154583          	lbu	a1,1(a0)
    1b28:	00058e63          	beqz	a1,1b44 <canMove+0x98>
    1b2c:	00180593          	addi	a1,a6,1
    1b30:	00a5b593          	sltiu	a1,a1,10
    1b34:	08058463          	beqz	a1,1bbc <canMove+0x110>
    1b38:	08079263          	bnez	a5,1bbc <canMove+0x110>
    1b3c:	00174583          	lbu	a1,1(a4)
    1b40:	06059e63          	bnez	a1,1bbc <canMove+0x110>
    1b44:	05c88463          	beq	a7,t3,1b8c <canMove+0xe0>
    1b48:	00254583          	lbu	a1,2(a0)
    1b4c:	00058e63          	beqz	a1,1b68 <canMove+0xbc>
    1b50:	00280593          	addi	a1,a6,2
    1b54:	00a5b593          	sltiu	a1,a1,10
    1b58:	06058263          	beqz	a1,1bbc <canMove+0x110>
    1b5c:	06079063          	bnez	a5,1bbc <canMove+0x110>
    1b60:	00274583          	lbu	a1,2(a4)
    1b64:	04059c63          	bnez	a1,1bbc <canMove+0x110>
    1b68:	03d88263          	beq	a7,t4,1b8c <canMove+0xe0>
    1b6c:	00354583          	lbu	a1,3(a0)
    1b70:	00058e63          	beqz	a1,1b8c <canMove+0xe0>
    1b74:	00380593          	addi	a1,a6,3
    1b78:	00a5b593          	sltiu	a1,a1,10
    1b7c:	04058063          	beqz	a1,1bbc <canMove+0x110>
    1b80:	02079e63          	bnez	a5,1bbc <canMove+0x110>
    1b84:	00374783          	lbu	a5,3(a4)
    1b88:	02079a63          	bnez	a5,1bbc <canMove+0x110>
    1b8c:	00160613          	addi	a2,a2,1
    1b90:	00450513          	addi	a0,a0,4
    1b94:	00a70713          	addi	a4,a4,10
    1b98:	f7e614e3          	bne	a2,t5,1b00 <canMove+0x54>
    1b9c:	00100513          	li	a0,1
    1ba0:	00008067          	ret
    1ba4:	00100793          	li	a5,1
    1ba8:	00f58e63          	beq	a1,a5,1bc4 <canMove+0x118>
    1bac:	ffe58593          	addi	a1,a1,-2
    1bb0:	0015b593          	seqz	a1,a1
    1bb4:	00b60633          	add	a2,a2,a1
    1bb8:	f05ff06f          	j	1abc <canMove+0x10>
    1bbc:	00000513          	li	a0,0
    1bc0:	00008067          	ret
    1bc4:	00b80833          	add	a6,a6,a1
    1bc8:	ef5ff06f          	j	1abc <canMove+0x10>

00001bcc <moveCurrent>:
    1bcc:	fe010113          	addi	sp,sp,-32
    1bd0:	00812c23          	sw	s0,24(sp)
    1bd4:	00112e23          	sw	ra,28(sp)
    1bd8:	00050413          	mv	s0,a0
    1bdc:	00b12623          	sw	a1,12(sp)
    1be0:	ecdff0ef          	jal	1aac <canMove>
    1be4:	00050c63          	beqz	a0,1bfc <moveCurrent+0x30>
    1be8:	00c12583          	lw	a1,12(sp)
    1bec:	02059063          	bnez	a1,1c0c <moveCurrent+0x40>
    1bf0:	00442783          	lw	a5,4(s0)
    1bf4:	fff78793          	addi	a5,a5,-1
    1bf8:	00f42223          	sw	a5,4(s0)
    1bfc:	01c12083          	lw	ra,28(sp)
    1c00:	01812403          	lw	s0,24(sp)
    1c04:	02010113          	addi	sp,sp,32
    1c08:	00008067          	ret
    1c0c:	00100e13          	li	t3,1
    1c10:	03c59063          	bne	a1,t3,1c30 <moveCurrent+0x64>
    1c14:	00442783          	lw	a5,4(s0)
    1c18:	01c12083          	lw	ra,28(sp)
    1c1c:	00b787b3          	add	a5,a5,a1
    1c20:	00f42223          	sw	a5,4(s0)
    1c24:	01812403          	lw	s0,24(sp)
    1c28:	02010113          	addi	sp,sp,32
    1c2c:	00008067          	ret
    1c30:	00200793          	li	a5,2
    1c34:	fcf594e3          	bne	a1,a5,1bfc <moveCurrent+0x30>
    1c38:	00442783          	lw	a5,4(s0)
    1c3c:	00042503          	lw	a0,0(s0)
    1c40:	000038b7          	lui	a7,0x3
    1c44:	00b783b3          	add	t2,a5,a1
    1c48:	00251713          	slli	a4,a0,0x2
    1c4c:	00a70733          	add	a4,a4,a0
    1c50:	00a3b393          	sltiu	t2,t2,10
    1c54:	c8288893          	addi	a7,a7,-894 # 2c82 <board+0xa>
    1c58:	00378693          	addi	a3,a5,3
    1c5c:	00178293          	addi	t0,a5,1
    1c60:	00171713          	slli	a4,a4,0x1
    1c64:	00f888b3          	add	a7,a7,a5
    1c68:	00912a23          	sw	s1,20(sp)
    1c6c:	0013c493          	xori	s1,t2,1
    1c70:	00842383          	lw	t2,8(s0)
    1c74:	00e888b3          	add	a7,a7,a4
    1c78:	00a2b293          	sltiu	t0,t0,10
    1c7c:	00a6b713          	sltiu	a4,a3,10
    1c80:	00a7b793          	sltiu	a5,a5,10
    1c84:	01212823          	sw	s2,16(sp)
    1c88:	00150513          	addi	a0,a0,1
    1c8c:	00174913          	xori	s2,a4,1
    1c90:	0012c293          	xori	t0,t0,1
    1c94:	0017cf13          	xori	t5,a5,1
    1c98:	00300f93          	li	t6,3
    1c9c:	0003a683          	lw	a3,0(t2)
    1ca0:	08d05c63          	blez	a3,1d38 <moveCurrent+0x16c>
    1ca4:	00c40713          	addi	a4,s0,12
    1ca8:	00a68eb3          	add	t4,a3,a0
    1cac:	00088613          	mv	a2,a7
    1cb0:	00050813          	mv	a6,a0
    1cb4:	00074303          	lbu	t1,0(a4)
    1cb8:	01483793          	sltiu	a5,a6,20
    1cbc:	0017c793          	xori	a5,a5,1
    1cc0:	00030a63          	beqz	t1,1cd4 <moveCurrent+0x108>
    1cc4:	08079263          	bnez	a5,1d48 <moveCurrent+0x17c>
    1cc8:	080f1063          	bnez	t5,1d48 <moveCurrent+0x17c>
    1ccc:	00064303          	lbu	t1,0(a2)
    1cd0:	06031c63          	bnez	t1,1d48 <moveCurrent+0x17c>
    1cd4:	05c68a63          	beq	a3,t3,1d28 <moveCurrent+0x15c>
    1cd8:	00174303          	lbu	t1,1(a4)
    1cdc:	00030a63          	beqz	t1,1cf0 <moveCurrent+0x124>
    1ce0:	06029463          	bnez	t0,1d48 <moveCurrent+0x17c>
    1ce4:	06079263          	bnez	a5,1d48 <moveCurrent+0x17c>
    1ce8:	00164303          	lbu	t1,1(a2)
    1cec:	04031e63          	bnez	t1,1d48 <moveCurrent+0x17c>
    1cf0:	02b68c63          	beq	a3,a1,1d28 <moveCurrent+0x15c>
    1cf4:	00274303          	lbu	t1,2(a4)
    1cf8:	00030a63          	beqz	t1,1d0c <moveCurrent+0x140>
    1cfc:	04049663          	bnez	s1,1d48 <moveCurrent+0x17c>
    1d00:	04079463          	bnez	a5,1d48 <moveCurrent+0x17c>
    1d04:	00264303          	lbu	t1,2(a2)
    1d08:	04031063          	bnez	t1,1d48 <moveCurrent+0x17c>
    1d0c:	01f68e63          	beq	a3,t6,1d28 <moveCurrent+0x15c>
    1d10:	00374303          	lbu	t1,3(a4)
    1d14:	00030a63          	beqz	t1,1d28 <moveCurrent+0x15c>
    1d18:	02091863          	bnez	s2,1d48 <moveCurrent+0x17c>
    1d1c:	02079663          	bnez	a5,1d48 <moveCurrent+0x17c>
    1d20:	00364783          	lbu	a5,3(a2)
    1d24:	02079263          	bnez	a5,1d48 <moveCurrent+0x17c>
    1d28:	00180813          	addi	a6,a6,1
    1d2c:	00470713          	addi	a4,a4,4
    1d30:	00a60613          	addi	a2,a2,10
    1d34:	f9d810e3          	bne	a6,t4,1cb4 <moveCurrent+0xe8>
    1d38:	00a42023          	sw	a0,0(s0)
    1d3c:	00a88893          	addi	a7,a7,10
    1d40:	00150513          	addi	a0,a0,1
    1d44:	f59ff06f          	j	1c9c <moveCurrent+0xd0>
    1d48:	01c12083          	lw	ra,28(sp)
    1d4c:	01812403          	lw	s0,24(sp)
    1d50:	01412483          	lw	s1,20(sp)
    1d54:	01012903          	lw	s2,16(sp)
    1d58:	02010113          	addi	sp,sp,32
    1d5c:	00008067          	ret

00001d60 <settlePiece>:
    1d60:	00852783          	lw	a5,8(a0)
    1d64:	0007a683          	lw	a3,0(a5)
    1d68:	10d05a63          	blez	a3,1e7c <settlePiece+0x11c>
    1d6c:	00c54603          	lbu	a2,12(a0)
    1d70:	00100713          	li	a4,1
    1d74:	00c50793          	addi	a5,a0,12
    1d78:	1ae60063          	beq	a2,a4,1f18 <settlePiece+0x1b8>
    1d7c:	00000713          	li	a4,0
    1d80:	00100613          	li	a2,1
    1d84:	02c68c63          	beq	a3,a2,1dbc <settlePiece+0x5c>
    1d88:	0017c583          	lbu	a1,1(a5)
    1d8c:	00100613          	li	a2,1
    1d90:	0ac58063          	beq	a1,a2,1e30 <settlePiece+0xd0>
    1d94:	00200613          	li	a2,2
    1d98:	02c68263          	beq	a3,a2,1dbc <settlePiece+0x5c>
    1d9c:	0027c583          	lbu	a1,2(a5)
    1da0:	00100613          	li	a2,1
    1da4:	0cc58e63          	beq	a1,a2,1e80 <settlePiece+0x120>
    1da8:	00300613          	li	a2,3
    1dac:	00c68863          	beq	a3,a2,1dbc <settlePiece+0x5c>
    1db0:	0037c583          	lbu	a1,3(a5)
    1db4:	00100613          	li	a2,1
    1db8:	10c58a63          	beq	a1,a2,1ecc <settlePiece+0x16c>
    1dbc:	00170713          	addi	a4,a4,1
    1dc0:	0ae68e63          	beq	a3,a4,1e7c <settlePiece+0x11c>
    1dc4:	0047c583          	lbu	a1,4(a5)
    1dc8:	00100613          	li	a2,1
    1dcc:	00478793          	addi	a5,a5,4
    1dd0:	00c58c63          	beq	a1,a2,1de8 <settlePiece+0x88>
    1dd4:	fac69ae3          	bne	a3,a2,1d88 <settlePiece+0x28>
    1dd8:	0047c583          	lbu	a1,4(a5)
    1ddc:	00478793          	addi	a5,a5,4
    1de0:	00170713          	addi	a4,a4,1
    1de4:	fec598e3          	bne	a1,a2,1dd4 <settlePiece+0x74>
    1de8:	00052603          	lw	a2,0(a0)
    1dec:	00452803          	lw	a6,4(a0)
    1df0:	00c70633          	add	a2,a4,a2
    1df4:	01463593          	sltiu	a1,a2,20
    1df8:	f80584e3          	beqz	a1,1d80 <settlePiece+0x20>
    1dfc:	00a83593          	sltiu	a1,a6,10
    1e00:	f80580e3          	beqz	a1,1d80 <settlePiece+0x20>
    1e04:	00852883          	lw	a7,8(a0)
    1e08:	00261593          	slli	a1,a2,0x2
    1e0c:	00c585b3          	add	a1,a1,a2
    1e10:	00003637          	lui	a2,0x3
    1e14:	0148a883          	lw	a7,20(a7)
    1e18:	00159593          	slli	a1,a1,0x1
    1e1c:	c7860613          	addi	a2,a2,-904 # 2c78 <board>
    1e20:	00b60633          	add	a2,a2,a1
    1e24:	01060633          	add	a2,a2,a6
    1e28:	01160023          	sb	a7,0(a2)
    1e2c:	f55ff06f          	j	1d80 <settlePiece+0x20>
    1e30:	00052603          	lw	a2,0(a0)
    1e34:	00452583          	lw	a1,4(a0)
    1e38:	00c70633          	add	a2,a4,a2
    1e3c:	01463813          	sltiu	a6,a2,20
    1e40:	00158593          	addi	a1,a1,1
    1e44:	f40808e3          	beqz	a6,1d94 <settlePiece+0x34>
    1e48:	00a5b813          	sltiu	a6,a1,10
    1e4c:	f40804e3          	beqz	a6,1d94 <settlePiece+0x34>
    1e50:	00852883          	lw	a7,8(a0)
    1e54:	00261813          	slli	a6,a2,0x2
    1e58:	00c80833          	add	a6,a6,a2
    1e5c:	00003637          	lui	a2,0x3
    1e60:	0148a883          	lw	a7,20(a7)
    1e64:	00181813          	slli	a6,a6,0x1
    1e68:	c7860613          	addi	a2,a2,-904 # 2c78 <board>
    1e6c:	01060633          	add	a2,a2,a6
    1e70:	00b60633          	add	a2,a2,a1
    1e74:	01160023          	sb	a7,0(a2)
    1e78:	f1dff06f          	j	1d94 <settlePiece+0x34>
    1e7c:	00008067          	ret
    1e80:	00052603          	lw	a2,0(a0)
    1e84:	00452583          	lw	a1,4(a0)
    1e88:	00c70633          	add	a2,a4,a2
    1e8c:	01463813          	sltiu	a6,a2,20
    1e90:	00258593          	addi	a1,a1,2
    1e94:	f0080ae3          	beqz	a6,1da8 <settlePiece+0x48>
    1e98:	00a5b813          	sltiu	a6,a1,10
    1e9c:	f00806e3          	beqz	a6,1da8 <settlePiece+0x48>
    1ea0:	00852883          	lw	a7,8(a0)
    1ea4:	00261813          	slli	a6,a2,0x2
    1ea8:	00c80833          	add	a6,a6,a2
    1eac:	00003637          	lui	a2,0x3
    1eb0:	0148a883          	lw	a7,20(a7)
    1eb4:	00181813          	slli	a6,a6,0x1
    1eb8:	c7860613          	addi	a2,a2,-904 # 2c78 <board>
    1ebc:	01060633          	add	a2,a2,a6
    1ec0:	00b60633          	add	a2,a2,a1
    1ec4:	01160023          	sb	a7,0(a2)
    1ec8:	ee1ff06f          	j	1da8 <settlePiece+0x48>
    1ecc:	00052603          	lw	a2,0(a0)
    1ed0:	00452583          	lw	a1,4(a0)
    1ed4:	00c70633          	add	a2,a4,a2
    1ed8:	01463813          	sltiu	a6,a2,20
    1edc:	00358593          	addi	a1,a1,3
    1ee0:	ec080ee3          	beqz	a6,1dbc <settlePiece+0x5c>
    1ee4:	00a5b813          	sltiu	a6,a1,10
    1ee8:	ec080ae3          	beqz	a6,1dbc <settlePiece+0x5c>
    1eec:	00852883          	lw	a7,8(a0)
    1ef0:	00261813          	slli	a6,a2,0x2
    1ef4:	00c80833          	add	a6,a6,a2
    1ef8:	00003637          	lui	a2,0x3
    1efc:	0148a883          	lw	a7,20(a7)
    1f00:	00181813          	slli	a6,a6,0x1
    1f04:	c7860613          	addi	a2,a2,-904 # 2c78 <board>
    1f08:	01060633          	add	a2,a2,a6
    1f0c:	00b60633          	add	a2,a2,a1
    1f10:	01160023          	sb	a7,0(a2)
    1f14:	ea9ff06f          	j	1dbc <settlePiece+0x5c>
    1f18:	00000713          	li	a4,0
    1f1c:	ecdff06f          	j	1de8 <settlePiece+0x88>

00001f20 <Lineclear>:
    1f20:	000037b7          	lui	a5,0x3
    1f24:	c7878713          	addi	a4,a5,-904 # 2c78 <board>
    1f28:	00003f37          	lui	t5,0x3
    1f2c:	01300693          	li	a3,19
    1f30:	d88f2303          	lw	t1,-632(t5) # 2d88 <totallinescleard>
    1f34:	0be70793          	addi	a5,a4,190
    1f38:	00068593          	mv	a1,a3
    1f3c:	00000e93          	li	t4,0
    1f40:	00000893          	li	a7,0
    1f44:	fff00e13          	li	t3,-1
    1f48:	0640006f          	j	1fac <Lineclear+0x8c>
    1f4c:	0017c503          	lbu	a0,1(a5)
    1f50:	06050263          	beqz	a0,1fb4 <Lineclear+0x94>
    1f54:	0027c503          	lbu	a0,2(a5)
    1f58:	04050e63          	beqz	a0,1fb4 <Lineclear+0x94>
    1f5c:	0037c503          	lbu	a0,3(a5)
    1f60:	04050a63          	beqz	a0,1fb4 <Lineclear+0x94>
    1f64:	0047c503          	lbu	a0,4(a5)
    1f68:	04050663          	beqz	a0,1fb4 <Lineclear+0x94>
    1f6c:	0057c503          	lbu	a0,5(a5)
    1f70:	04050263          	beqz	a0,1fb4 <Lineclear+0x94>
    1f74:	0067c503          	lbu	a0,6(a5)
    1f78:	02050e63          	beqz	a0,1fb4 <Lineclear+0x94>
    1f7c:	0077c503          	lbu	a0,7(a5)
    1f80:	02050a63          	beqz	a0,1fb4 <Lineclear+0x94>
    1f84:	0087c503          	lbu	a0,8(a5)
    1f88:	02050663          	beqz	a0,1fb4 <Lineclear+0x94>
    1f8c:	0097c503          	lbu	a0,9(a5)
    1f90:	02050263          	beqz	a0,1fb4 <Lineclear+0x94>
    1f94:	fff68693          	addi	a3,a3,-1
    1f98:	00188893          	addi	a7,a7,1
    1f9c:	00130313          	addi	t1,t1,1
    1fa0:	00100e93          	li	t4,1
    1fa4:	ff678793          	addi	a5,a5,-10
    1fa8:	03c68063          	beq	a3,t3,1fc8 <Lineclear+0xa8>
    1fac:	0007c603          	lbu	a2,0(a5)
    1fb0:	f8061ee3          	bnez	a2,1f4c <Lineclear+0x2c>
    1fb4:	08b69663          	bne	a3,a1,2040 <Lineclear+0x120>
    1fb8:	fff58593          	addi	a1,a1,-1
    1fbc:	fff68693          	addi	a3,a3,-1
    1fc0:	ff678793          	addi	a5,a5,-10
    1fc4:	ffc694e3          	bne	a3,t3,1fac <Lineclear+0x8c>
    1fc8:	000e8463          	beqz	t4,1fd0 <Lineclear+0xb0>
    1fcc:	d86f2423          	sw	t1,-632(t5)
    1fd0:	0405c463          	bltz	a1,2018 <Lineclear+0xf8>
    1fd4:	00259793          	slli	a5,a1,0x2
    1fd8:	00b787b3          	add	a5,a5,a1
    1fdc:	00179793          	slli	a5,a5,0x1
    1fe0:	000036b7          	lui	a3,0x3
    1fe4:	00f707b3          	add	a5,a4,a5
    1fe8:	c6e68713          	addi	a4,a3,-914 # 2c6e <back_buffer+0x2>
    1fec:	00078023          	sb	zero,0(a5)
    1ff0:	000780a3          	sb	zero,1(a5)
    1ff4:	00078123          	sb	zero,2(a5)
    1ff8:	000781a3          	sb	zero,3(a5)
    1ffc:	00078223          	sb	zero,4(a5)
    2000:	000782a3          	sb	zero,5(a5)
    2004:	00078323          	sb	zero,6(a5)
    2008:	000783a3          	sb	zero,7(a5)
    200c:	00079423          	sh	zero,8(a5)
    2010:	ff678793          	addi	a5,a5,-10
    2014:	fcf71ce3          	bne	a4,a5,1fec <Lineclear+0xcc>
    2018:	00100793          	li	a5,1
    201c:	08f88063          	beq	a7,a5,209c <Lineclear+0x17c>
    2020:	00200793          	li	a5,2
    2024:	08f88063          	beq	a7,a5,20a4 <Lineclear+0x184>
    2028:	00300793          	li	a5,3
    202c:	08f88063          	beq	a7,a5,20ac <Lineclear+0x18c>
    2030:	00400793          	li	a5,4
    2034:	08f88063          	beq	a7,a5,20b4 <Lineclear+0x194>
    2038:	00000513          	li	a0,0
    203c:	00008067          	ret
    2040:	00259513          	slli	a0,a1,0x2
    2044:	00b50533          	add	a0,a0,a1
    2048:	00151513          	slli	a0,a0,0x1
    204c:	00a70833          	add	a6,a4,a0
    2050:	00c80023          	sb	a2,0(a6)
    2054:	0017c603          	lbu	a2,1(a5)
    2058:	fff58593          	addi	a1,a1,-1
    205c:	00c800a3          	sb	a2,1(a6)
    2060:	0027c603          	lbu	a2,2(a5)
    2064:	00c80123          	sb	a2,2(a6)
    2068:	0037c603          	lbu	a2,3(a5)
    206c:	00c801a3          	sb	a2,3(a6)
    2070:	0047c603          	lbu	a2,4(a5)
    2074:	00c80223          	sb	a2,4(a6)
    2078:	0057c603          	lbu	a2,5(a5)
    207c:	00c802a3          	sb	a2,5(a6)
    2080:	0067c603          	lbu	a2,6(a5)
    2084:	00c80323          	sb	a2,6(a6)
    2088:	0077c603          	lbu	a2,7(a5)
    208c:	00c803a3          	sb	a2,7(a6)
    2090:	0087d603          	lhu	a2,8(a5)
    2094:	00c81423          	sh	a2,8(a6)
    2098:	f25ff06f          	j	1fbc <Lineclear+0x9c>
    209c:	06400513          	li	a0,100
    20a0:	00008067          	ret
    20a4:	19000513          	li	a0,400
    20a8:	00008067          	ret
    20ac:	38400513          	li	a0,900
    20b0:	00008067          	ret
    20b4:	7d000513          	li	a0,2000
    20b8:	00008067          	ret

000020bc <rotate>:
    20bc:	00852783          	lw	a5,8(a0)
    20c0:	0007a603          	lw	a2,0(a5)
    20c4:	32c05663          	blez	a2,23f0 <rotate+0x334>
    20c8:	00c54883          	lbu	a7,12(a0)
    20cc:	fe010113          	addi	sp,sp,-32
    20d0:	00100793          	li	a5,1
    20d4:	01110023          	sb	a7,0(sp)
    20d8:	30f60863          	beq	a2,a5,23e8 <rotate+0x32c>
    20dc:	00d54783          	lbu	a5,13(a0)
    20e0:	00200713          	li	a4,2
    20e4:	00f10223          	sb	a5,4(sp)
    20e8:	30e60663          	beq	a2,a4,23f4 <rotate+0x338>
    20ec:	00e54703          	lbu	a4,14(a0)
    20f0:	00300793          	li	a5,3
    20f4:	00e10423          	sb	a4,8(sp)
    20f8:	34f60863          	beq	a2,a5,2448 <rotate+0x38c>
    20fc:	01854783          	lbu	a5,24(a0)
    2100:	01f60713          	addi	a4,a2,31
    2104:	00f54303          	lbu	t1,15(a0)
    2108:	00f101a3          	sb	a5,3(sp)
    210c:	01454783          	lbu	a5,20(a0)
    2110:	01054803          	lbu	a6,16(a0)
    2114:	002706b3          	add	a3,a4,sp
    2118:	01154703          	lbu	a4,17(a0)
    211c:	00f10123          	sb	a5,2(sp)
    2120:	02060793          	addi	a5,a2,32
    2124:	fe06c883          	lbu	a7,-32(a3)
    2128:	01254283          	lbu	t0,18(a0)
    212c:	01354f83          	lbu	t6,19(a0)
    2130:	01554f03          	lbu	t5,21(a0)
    2134:	01654e83          	lbu	t4,22(a0)
    2138:	01754e03          	lbu	t3,23(a0)
    213c:	002785b3          	add	a1,a5,sp
    2140:	00610623          	sb	t1,12(sp)
    2144:	010100a3          	sb	a6,1(sp)
    2148:	01954303          	lbu	t1,25(a0)
    214c:	01a54803          	lbu	a6,26(a0)
    2150:	00e102a3          	sb	a4,5(sp)
    2154:	01b54703          	lbu	a4,27(a0)
    2158:	fde5c783          	lbu	a5,-34(a1)
    215c:	01110823          	sb	a7,16(sp)
    2160:	005104a3          	sb	t0,9(sp)
    2164:	01f106a3          	sb	t6,13(sp)
    2168:	01e10323          	sb	t5,6(sp)
    216c:	01d10523          	sb	t4,10(sp)
    2170:	01c10723          	sb	t3,14(sp)
    2174:	006103a3          	sb	t1,7(sp)
    2178:	010105a3          	sb	a6,11(sp)
    217c:	00e107a3          	sb	a4,15(sp)
    2180:	fdd5c703          	lbu	a4,-35(a1)
    2184:	00f108a3          	sb	a5,17(sp)
    2188:	00300793          	li	a5,3
    218c:	00e10923          	sb	a4,18(sp)
    2190:	00f60663          	beq	a2,a5,219c <rotate+0xe0>
    2194:	fdc5c783          	lbu	a5,-36(a1)
    2198:	00f109a3          	sb	a5,19(sp)
    219c:	01e60713          	addi	a4,a2,30
    21a0:	01d60793          	addi	a5,a2,29
    21a4:	00270733          	add	a4,a4,sp
    21a8:	002787b3          	add	a5,a5,sp
    21ac:	fe46c803          	lbu	a6,-28(a3)
    21b0:	fe474e03          	lbu	t3,-28(a4)
    21b4:	fe47c303          	lbu	t1,-28(a5)
    21b8:	01010a23          	sb	a6,20(sp)
    21bc:	01c10aa3          	sb	t3,21(sp)
    21c0:	00610b23          	sb	t1,22(sp)
    21c4:	00300813          	li	a6,3
    21c8:	2d060263          	beq	a2,a6,248c <rotate+0x3d0>
    21cc:	00260833          	add	a6,a2,sp
    21d0:	fe05cf03          	lbu	t5,-32(a1)
    21d4:	00484e83          	lbu	t4,4(a6)
    21d8:	00884e03          	lbu	t3,8(a6)
    21dc:	fe86c303          	lbu	t1,-24(a3)
    21e0:	fec6c803          	lbu	a6,-20(a3)
    21e4:	fe874583          	lbu	a1,-24(a4)
    21e8:	fec74683          	lbu	a3,-20(a4)
    21ec:	fe87c703          	lbu	a4,-24(a5)
    21f0:	fec7c783          	lbu	a5,-20(a5)
    21f4:	01e10ba3          	sb	t5,23(sp)
    21f8:	01d10da3          	sb	t4,27(sp)
    21fc:	01c10fa3          	sb	t3,31(sp)
    2200:	00610c23          	sb	t1,24(sp)
    2204:	01010e23          	sb	a6,28(sp)
    2208:	00b10ca3          	sb	a1,25(sp)
    220c:	00d10ea3          	sb	a3,29(sp)
    2210:	00e10d23          	sb	a4,26(sp)
    2214:	00f10f23          	sb	a5,30(sp)
    2218:	01014783          	lbu	a5,16(sp)
    221c:	01010693          	addi	a3,sp,16
    2220:	00000593          	li	a1,0
    2224:	04078263          	beqz	a5,2268 <rotate+0x1ac>
    2228:	00052783          	lw	a5,0(a0)
    222c:	00452703          	lw	a4,4(a0)
    2230:	00f587b3          	add	a5,a1,a5
    2234:	0147b813          	sltiu	a6,a5,20
    2238:	18080863          	beqz	a6,23c8 <rotate+0x30c>
    223c:	00a73813          	sltiu	a6,a4,10
    2240:	18080463          	beqz	a6,23c8 <rotate+0x30c>
    2244:	00279813          	slli	a6,a5,0x2
    2248:	00f80833          	add	a6,a6,a5
    224c:	000037b7          	lui	a5,0x3
    2250:	00181813          	slli	a6,a6,0x1
    2254:	c7878793          	addi	a5,a5,-904 # 2c78 <board>
    2258:	010787b3          	add	a5,a5,a6
    225c:	00e787b3          	add	a5,a5,a4
    2260:	0007c783          	lbu	a5,0(a5)
    2264:	16079263          	bnez	a5,23c8 <rotate+0x30c>
    2268:	00100793          	li	a5,1
    226c:	00200313          	li	t1,2
    2270:	00300e13          	li	t3,3
    2274:	24f60063          	beq	a2,a5,24b4 <rotate+0x3f8>
    2278:	0016c783          	lbu	a5,1(a3)
    227c:	04078463          	beqz	a5,22c4 <rotate+0x208>
    2280:	00052783          	lw	a5,0(a0)
    2284:	00452703          	lw	a4,4(a0)
    2288:	00f587b3          	add	a5,a1,a5
    228c:	0147b813          	sltiu	a6,a5,20
    2290:	00170713          	addi	a4,a4,1
    2294:	12080a63          	beqz	a6,23c8 <rotate+0x30c>
    2298:	00a73813          	sltiu	a6,a4,10
    229c:	12080663          	beqz	a6,23c8 <rotate+0x30c>
    22a0:	00279813          	slli	a6,a5,0x2
    22a4:	00f80833          	add	a6,a6,a5
    22a8:	000037b7          	lui	a5,0x3
    22ac:	00181813          	slli	a6,a6,0x1
    22b0:	c7878793          	addi	a5,a5,-904 # 2c78 <board>
    22b4:	010787b3          	add	a5,a5,a6
    22b8:	00e787b3          	add	a5,a5,a4
    22bc:	0007c783          	lbu	a5,0(a5)
    22c0:	10079463          	bnez	a5,23c8 <rotate+0x30c>
    22c4:	10c35663          	bge	t1,a2,23d0 <rotate+0x314>
    22c8:	0026c783          	lbu	a5,2(a3)
    22cc:	04078463          	beqz	a5,2314 <rotate+0x258>
    22d0:	00052783          	lw	a5,0(a0)
    22d4:	00452703          	lw	a4,4(a0)
    22d8:	00f587b3          	add	a5,a1,a5
    22dc:	0147b813          	sltiu	a6,a5,20
    22e0:	00270713          	addi	a4,a4,2
    22e4:	0e080263          	beqz	a6,23c8 <rotate+0x30c>
    22e8:	00a73813          	sltiu	a6,a4,10
    22ec:	0c080e63          	beqz	a6,23c8 <rotate+0x30c>
    22f0:	00279813          	slli	a6,a5,0x2
    22f4:	00f80833          	add	a6,a6,a5
    22f8:	000037b7          	lui	a5,0x3
    22fc:	00181813          	slli	a6,a6,0x1
    2300:	c7878793          	addi	a5,a5,-904 # 2c78 <board>
    2304:	010787b3          	add	a5,a5,a6
    2308:	00e787b3          	add	a5,a5,a4
    230c:	0007c783          	lbu	a5,0(a5)
    2310:	0a079c63          	bnez	a5,23c8 <rotate+0x30c>
    2314:	0bc60e63          	beq	a2,t3,23d0 <rotate+0x314>
    2318:	0036c783          	lbu	a5,3(a3)
    231c:	0a078a63          	beqz	a5,23d0 <rotate+0x314>
    2320:	00052783          	lw	a5,0(a0)
    2324:	00452703          	lw	a4,4(a0)
    2328:	00f58833          	add	a6,a1,a5
    232c:	01483e93          	sltiu	t4,a6,20
    2330:	00370f13          	addi	t5,a4,3
    2334:	080e8a63          	beqz	t4,23c8 <rotate+0x30c>
    2338:	00af3e93          	sltiu	t4,t5,10
    233c:	080e8663          	beqz	t4,23c8 <rotate+0x30c>
    2340:	00281e93          	slli	t4,a6,0x2
    2344:	010e8eb3          	add	t4,t4,a6
    2348:	00003837          	lui	a6,0x3
    234c:	001e9e93          	slli	t4,t4,0x1
    2350:	c7880813          	addi	a6,a6,-904 # 2c78 <board>
    2354:	01d80833          	add	a6,a6,t4
    2358:	01e80833          	add	a6,a6,t5
    235c:	00084803          	lbu	a6,0(a6)
    2360:	06081463          	bnez	a6,23c8 <rotate+0x30c>
    2364:	00158593          	addi	a1,a1,1
    2368:	00468693          	addi	a3,a3,4
    236c:	00b60863          	beq	a2,a1,237c <rotate+0x2c0>
    2370:	0006c803          	lbu	a6,0(a3)
    2374:	ea081ee3          	bnez	a6,2230 <rotate+0x174>
    2378:	f01ff06f          	j	2278 <rotate+0x1bc>
    237c:	01150623          	sb	a7,12(a0)
    2380:	00100793          	li	a5,1
    2384:	04f60263          	beq	a2,a5,23c8 <rotate+0x30c>
    2388:	01114703          	lbu	a4,17(sp)
    238c:	00200793          	li	a5,2
    2390:	00e506a3          	sb	a4,13(a0)
    2394:	10f60a63          	beq	a2,a5,24a8 <rotate+0x3ec>
    2398:	01214703          	lbu	a4,18(sp)
    239c:	00300793          	li	a5,3
    23a0:	00e50723          	sb	a4,14(a0)
    23a4:	08f60063          	beq	a2,a5,2424 <rotate+0x368>
    23a8:	01c12603          	lw	a2,28(sp)
    23ac:	01314683          	lbu	a3,19(sp)
    23b0:	01412703          	lw	a4,20(sp)
    23b4:	01812783          	lw	a5,24(sp)
    23b8:	00c52c23          	sw	a2,24(a0)
    23bc:	00d507a3          	sb	a3,15(a0)
    23c0:	00e52823          	sw	a4,16(a0)
    23c4:	00f52a23          	sw	a5,20(a0)
    23c8:	02010113          	addi	sp,sp,32
    23cc:	00008067          	ret
    23d0:	00158593          	addi	a1,a1,1
    23d4:	00468693          	addi	a3,a3,4
    23d8:	fab602e3          	beq	a2,a1,237c <rotate+0x2c0>
    23dc:	0006c783          	lbu	a5,0(a3)
    23e0:	e40794e3          	bnez	a5,2228 <rotate+0x16c>
    23e4:	e95ff06f          	j	2278 <rotate+0x1bc>
    23e8:	01110823          	sb	a7,16(sp)
    23ec:	e2dff06f          	j	2218 <rotate+0x15c>
    23f0:	00008067          	ret
    23f4:	01054883          	lbu	a7,16(a0)
    23f8:	00f10aa3          	sb	a5,21(sp)
    23fc:	01154683          	lbu	a3,17(a0)
    2400:	011100a3          	sb	a7,1(sp)
    2404:	00015783          	lhu	a5,0(sp)
    2408:	00d102a3          	sb	a3,5(sp)
    240c:	00d10a23          	sb	a3,20(sp)
    2410:	0087d713          	srli	a4,a5,0x8
    2414:	00879793          	slli	a5,a5,0x8
    2418:	00f707b3          	add	a5,a4,a5
    241c:	00f11823          	sh	a5,16(sp)
    2420:	df9ff06f          	j	2218 <rotate+0x15c>
    2424:	01415603          	lhu	a2,20(sp)
    2428:	01614683          	lbu	a3,22(sp)
    242c:	01815703          	lhu	a4,24(sp)
    2430:	01a14783          	lbu	a5,26(sp)
    2434:	00c51823          	sh	a2,16(a0)
    2438:	00d50923          	sb	a3,18(a0)
    243c:	00e51a23          	sh	a4,20(a0)
    2440:	00f50b23          	sb	a5,22(a0)
    2444:	f85ff06f          	j	23c8 <rotate+0x30c>
    2448:	01454703          	lbu	a4,20(a0)
    244c:	01554583          	lbu	a1,21(a0)
    2450:	01654683          	lbu	a3,22(a0)
    2454:	01054783          	lbu	a5,16(a0)
    2458:	01154303          	lbu	t1,17(a0)
    245c:	01254803          	lbu	a6,18(a0)
    2460:	00b10323          	sb	a1,6(sp)
    2464:	00d10523          	sb	a3,10(sp)
    2468:	00070893          	mv	a7,a4
    246c:	00e10123          	sb	a4,2(sp)
    2470:	00e10823          	sb	a4,16(sp)
    2474:	00f100a3          	sb	a5,1(sp)
    2478:	006102a3          	sb	t1,5(sp)
    247c:	010104a3          	sb	a6,9(sp)
    2480:	02310593          	addi	a1,sp,35
    2484:	02210693          	addi	a3,sp,34
    2488:	cf9ff06f          	j	2180 <rotate+0xc4>
    248c:	fe86c683          	lbu	a3,-24(a3)
    2490:	00914703          	lbu	a4,9(sp)
    2494:	00814783          	lbu	a5,8(sp)
    2498:	00d10c23          	sb	a3,24(sp)
    249c:	00e10ca3          	sb	a4,25(sp)
    24a0:	00f10d23          	sb	a5,26(sp)
    24a4:	d75ff06f          	j	2218 <rotate+0x15c>
    24a8:	01415783          	lhu	a5,20(sp)
    24ac:	00f51823          	sh	a5,16(a0)
    24b0:	f19ff06f          	j	23c8 <rotate+0x30c>
    24b4:	00158593          	addi	a1,a1,1
    24b8:	00468693          	addi	a3,a3,4
    24bc:	ecc580e3          	beq	a1,a2,237c <rotate+0x2c0>
    24c0:	0006c783          	lbu	a5,0(a3)
    24c4:	d60792e3          	bnez	a5,2228 <rotate+0x16c>
    24c8:	00158593          	addi	a1,a1,1
    24cc:	00468693          	addi	a3,a3,4
    24d0:	ff1ff06f          	j	24c0 <rotate+0x404>

000024d4 <scoring>:
    24d4:	00100793          	li	a5,1
    24d8:	02f50263          	beq	a0,a5,24fc <scoring+0x28>
    24dc:	00200793          	li	a5,2
    24e0:	02f50263          	beq	a0,a5,2504 <scoring+0x30>
    24e4:	00300793          	li	a5,3
    24e8:	02f50263          	beq	a0,a5,250c <scoring+0x38>
    24ec:	00400793          	li	a5,4
    24f0:	02f50263          	beq	a0,a5,2514 <scoring+0x40>
    24f4:	00000513          	li	a0,0
    24f8:	00008067          	ret
    24fc:	06400513          	li	a0,100
    2500:	00008067          	ret
    2504:	19000513          	li	a0,400
    2508:	00008067          	ret
    250c:	38400513          	li	a0,900
    2510:	00008067          	ret
    2514:	7d000513          	li	a0,2000
    2518:	00008067          	ret

0000251c <level>:
    251c:	000037b7          	lui	a5,0x3
    2520:	d887a503          	lw	a0,-632(a5) # 2d88 <totallinescleard>
    2524:	666667b7          	lui	a5,0x66666
    2528:	66778793          	addi	a5,a5,1639 # 66666667 <_stack_end+0x6656368b>
    252c:	02f517b3          	mulh	a5,a0,a5
    2530:	41f55513          	srai	a0,a0,0x1f
    2534:	4027d793          	srai	a5,a5,0x2
    2538:	40a78533          	sub	a0,a5,a0
    253c:	00008067          	ret

00002540 <get_btn>:
    2540:	ff010113          	addi	sp,sp,-16
    2544:	01212023          	sw	s2,0(sp)
    2548:	00003937          	lui	s2,0x3
    254c:	c7492783          	lw	a5,-908(s2) # 2c74 <button>
    2550:	00912223          	sw	s1,4(sp)
    2554:	00050493          	mv	s1,a0
    2558:	00500513          	li	a0,5
    255c:	00812423          	sw	s0,8(sp)
    2560:	00112623          	sw	ra,12(sp)
    2564:	0007a403          	lw	s0,0(a5)
    2568:	ed8fe0ef          	jal	c40 <delay>
    256c:	c7492783          	lw	a5,-908(s2)
    2570:	40945433          	sra	s0,s0,s1
    2574:	00003737          	lui	a4,0x3
    2578:	0007a783          	lw	a5,0(a5)
    257c:	d4070713          	addi	a4,a4,-704 # 2d40 <prevstate>
    2580:	4097d7b3          	sra	a5,a5,s1
    2584:	0017f793          	andi	a5,a5,1
    2588:	00f47533          	and	a0,s0,a5
    258c:	00249493          	slli	s1,s1,0x2
    2590:	00050863          	beqz	a0,25a0 <get_btn+0x60>
    2594:	009706b3          	add	a3,a4,s1
    2598:	0006a503          	lw	a0,0(a3)
    259c:	00153513          	seqz	a0,a0
    25a0:	00c12083          	lw	ra,12(sp)
    25a4:	00812403          	lw	s0,8(sp)
    25a8:	00970733          	add	a4,a4,s1
    25ac:	00f72023          	sw	a5,0(a4)
    25b0:	00412483          	lw	s1,4(sp)
    25b4:	00012903          	lw	s2,0(sp)
    25b8:	01010113          	addi	sp,sp,16
    25bc:	00008067          	ret

000025c0 <get_btn_held>:
    25c0:	000037b7          	lui	a5,0x3
    25c4:	c747a783          	lw	a5,-908(a5) # 2c74 <button>
    25c8:	00003737          	lui	a4,0x3
    25cc:	00251693          	slli	a3,a0,0x2
    25d0:	0007a783          	lw	a5,0(a5)
    25d4:	d4070713          	addi	a4,a4,-704 # 2d40 <prevstate>
    25d8:	00d70733          	add	a4,a4,a3
    25dc:	40a7d533          	sra	a0,a5,a0
    25e0:	00157513          	andi	a0,a0,1
    25e4:	00a72023          	sw	a0,0(a4)
    25e8:	00008067          	ret

000025ec <clearScreen>:
    25ec:	00003537          	lui	a0,0x3
    25f0:	ff010113          	addi	sp,sp,-16
    25f4:	f3450513          	addi	a0,a0,-204 # 2f34 <pieces+0x134>
    25f8:	00112623          	sw	ra,12(sp)
    25fc:	1c4000ef          	jal	27c0 <print>
    2600:	00c12083          	lw	ra,12(sp)
    2604:	00003537          	lui	a0,0x3
    2608:	f3c50513          	addi	a0,a0,-196 # 2f3c <pieces+0x13c>
    260c:	01010113          	addi	sp,sp,16
    2610:	1b00006f          	j	27c0 <print>

00002614 <main>:
    2614:	fe010113          	addi	sp,sp,-32
    2618:	00003537          	lui	a0,0x3
    261c:	f4050513          	addi	a0,a0,-192 # 2f40 <pieces+0x140>
    2620:	00812c23          	sw	s0,24(sp)
    2624:	01412423          	sw	s4,8(sp)
    2628:	00003437          	lui	s0,0x3
    262c:	00003a37          	lui	s4,0x3
    2630:	00112e23          	sw	ra,28(sp)
    2634:	00912a23          	sw	s1,20(sp)
    2638:	01212823          	sw	s2,16(sp)
    263c:	01312623          	sw	s3,12(sp)
    2640:	01512223          	sw	s5,4(sp)
    2644:	01612023          	sw	s6,0(sp)
    2648:	d80a2623          	sw	zero,-628(s4) # 2d8c <score>
    264c:	d5440413          	addi	s0,s0,-684 # 2d54 <current>
    2650:	170000ef          	jal	27c0 <print>
    2654:	b2dfd0ef          	jal	180 <timerinit>
    2658:	f04fe0ef          	jal	d5c <generateseed>
    265c:	fd4fe0ef          	jal	e30 <clearboard>
    2660:	00040513          	mv	a0,s0
    2664:	83cff0ef          	jal	16a0 <spawnpiece>
    2668:	000039b7          	lui	s3,0x3
    266c:	00003937          	lui	s2,0x3
    2670:	00003ab7          	lui	s5,0x3
    2674:	000034b7          	lui	s1,0x3
    2678:	00000513          	li	a0,0
    267c:	ec5ff0ef          	jal	2540 <get_btn>
    2680:	06051463          	bnez	a0,26e8 <main+0xd4>
    2684:	00100513          	li	a0,1
    2688:	eb9ff0ef          	jal	2540 <get_btn>
    268c:	06051a63          	bnez	a0,2700 <main+0xec>
    2690:	00300513          	li	a0,3
    2694:	eadff0ef          	jal	2540 <get_btn>
    2698:	08051063          	bnez	a0,2718 <main+0x104>
    269c:	00200513          	li	a0,2
    26a0:	ea1ff0ef          	jal	2540 <get_btn>
    26a4:	08051663          	bnez	a0,2730 <main+0x11c>
    26a8:	00400513          	li	a0,4
    26ac:	f15ff0ef          	jal	25c0 <get_btn_held>
    26b0:	d6a9a823          	sw	a0,-656(s3) # 2d70 <softdrop_active>
    26b4:	d8092783          	lw	a5,-640(s2) # 2d80 <tick>
    26b8:	08079a63          	bnez	a5,274c <main+0x138>
    26bc:	d7c4a783          	lw	a5,-644(s1) # 2d7c <frames>
    26c0:	fa078ce3          	beqz	a5,2678 <main+0x64>
    26c4:	d604ae23          	sw	zero,-644(s1)
    26c8:	e55ff0ef          	jal	251c <level>
    26cc:	d8aaa823          	sw	a0,-624(s5) # 2d90 <lvl>
    26d0:	d8ca2583          	lw	a1,-628(s4)
    26d4:	00040513          	mv	a0,s0
    26d8:	82dfe0ef          	jal	f04 <draw_board>
    26dc:	00000513          	li	a0,0
    26e0:	e61ff0ef          	jal	2540 <get_btn>
    26e4:	fa0500e3          	beqz	a0,2684 <main+0x70>
    26e8:	00040513          	mv	a0,s0
    26ec:	00000593          	li	a1,0
    26f0:	cdcff0ef          	jal	1bcc <moveCurrent>
    26f4:	00100513          	li	a0,1
    26f8:	e49ff0ef          	jal	2540 <get_btn>
    26fc:	f8050ae3          	beqz	a0,2690 <main+0x7c>
    2700:	00040513          	mv	a0,s0
    2704:	00100593          	li	a1,1
    2708:	cc4ff0ef          	jal	1bcc <moveCurrent>
    270c:	00300513          	li	a0,3
    2710:	e31ff0ef          	jal	2540 <get_btn>
    2714:	f80504e3          	beqz	a0,269c <main+0x88>
    2718:	00040513          	mv	a0,s0
    271c:	00200593          	li	a1,2
    2720:	cacff0ef          	jal	1bcc <moveCurrent>
    2724:	00200513          	li	a0,2
    2728:	e19ff0ef          	jal	2540 <get_btn>
    272c:	f6050ee3          	beqz	a0,26a8 <main+0x94>
    2730:	00040513          	mv	a0,s0
    2734:	989ff0ef          	jal	20bc <rotate>
    2738:	00400513          	li	a0,4
    273c:	e85ff0ef          	jal	25c0 <get_btn_held>
    2740:	d6a9a823          	sw	a0,-656(s3)
    2744:	d8092783          	lw	a5,-640(s2)
    2748:	f6078ae3          	beqz	a5,26bc <main+0xa8>
    274c:	00200593          	li	a1,2
    2750:	00040513          	mv	a0,s0
    2754:	d8092023          	sw	zero,-640(s2)
    2758:	b54ff0ef          	jal	1aac <canMove>
    275c:	00050a63          	beqz	a0,2770 <main+0x15c>
    2760:	00042783          	lw	a5,0(s0)
    2764:	00178793          	addi	a5,a5,1
    2768:	00f42023          	sw	a5,0(s0)
    276c:	f51ff06f          	j	26bc <main+0xa8>
    2770:	00040513          	mv	a0,s0
    2774:	decff0ef          	jal	1d60 <settlePiece>
    2778:	d90aab03          	lw	s6,-624(s5)
    277c:	fa4ff0ef          	jal	1f20 <Lineclear>
    2780:	d8ca2783          	lw	a5,-628(s4)
    2784:	001b0b13          	addi	s6,s6,1
    2788:	02ab0b33          	mul	s6,s6,a0
    278c:	00040513          	mv	a0,s0
    2790:	00fb0b33          	add	s6,s6,a5
    2794:	d96a2623          	sw	s6,-628(s4)
    2798:	f09fe0ef          	jal	16a0 <spawnpiece>
    279c:	f21ff06f          	j	26bc <main+0xa8>

000027a0 <printc>:
    27a0:	04000737          	lui	a4,0x4000
    27a4:	04470713          	addi	a4,a4,68 # 4000044 <_stack_end+0x3efd068>
    27a8:	000106b7          	lui	a3,0x10
    27ac:	00072783          	lw	a5,0(a4)
    27b0:	fed7eee3          	bltu	a5,a3,27ac <printc+0xc>
    27b4:	040007b7          	lui	a5,0x4000
    27b8:	04a7a023          	sw	a0,64(a5) # 4000040 <_stack_end+0x3efd064>
    27bc:	00008067          	ret

000027c0 <print>:
    27c0:	00054603          	lbu	a2,0(a0)
    27c4:	02060863          	beqz	a2,27f4 <print+0x34>
    27c8:	04000737          	lui	a4,0x4000
    27cc:	040005b7          	lui	a1,0x4000
    27d0:	04470713          	addi	a4,a4,68 # 4000044 <_stack_end+0x3efd068>
    27d4:	04058593          	addi	a1,a1,64 # 4000040 <_stack_end+0x3efd064>
    27d8:	000106b7          	lui	a3,0x10
    27dc:	00072783          	lw	a5,0(a4)
    27e0:	fed7eee3          	bltu	a5,a3,27dc <print+0x1c>
    27e4:	00c5a023          	sw	a2,0(a1)
    27e8:	00154603          	lbu	a2,1(a0)
    27ec:	00150513          	addi	a0,a0,1
    27f0:	fe0616e3          	bnez	a2,27dc <print+0x1c>
    27f4:	00008067          	ret

000027f8 <print_dec>:
    27f8:	3b9ad737          	lui	a4,0x3b9ad
    27fc:	040006b7          	lui	a3,0x4000
    2800:	04000337          	lui	t1,0x4000
    2804:	ccccd8b7          	lui	a7,0xccccd
    2808:	a0070713          	addi	a4,a4,-1536 # 3b9aca00 <_stack_end+0x3b8a9a24>
    280c:	04468693          	addi	a3,a3,68 # 4000044 <_stack_end+0x3efd068>
    2810:	04030313          	addi	t1,t1,64 # 4000040 <_stack_end+0x3efd064>
    2814:	ccd88893          	addi	a7,a7,-819 # cccccccd <_stack_end+0xccbc9cf1>
    2818:	00a00593          	li	a1,10
    281c:	00000793          	li	a5,0
    2820:	00010637          	lui	a2,0x10
    2824:	04e57663          	bgeu	a0,a4,2870 <print_dec+0x78>
    2828:	00078813          	mv	a6,a5
    282c:	00000793          	li	a5,0
    2830:	04081063          	bnez	a6,2870 <print_dec+0x78>
    2834:	03173833          	mulhu	a6,a4,a7
    2838:	fff58593          	addi	a1,a1,-1
    283c:	02e57533          	remu	a0,a0,a4
    2840:	00385713          	srli	a4,a6,0x3
    2844:	fe0590e3          	bnez	a1,2824 <print_dec+0x2c>
    2848:	02079263          	bnez	a5,286c <print_dec+0x74>
    284c:	04000737          	lui	a4,0x4000
    2850:	04470713          	addi	a4,a4,68 # 4000044 <_stack_end+0x3efd068>
    2854:	000106b7          	lui	a3,0x10
    2858:	00072783          	lw	a5,0(a4)
    285c:	fed7eee3          	bltu	a5,a3,2858 <print_dec+0x60>
    2860:	040007b7          	lui	a5,0x4000
    2864:	03000713          	li	a4,48
    2868:	04e7a023          	sw	a4,64(a5) # 4000040 <_stack_end+0x3efd064>
    286c:	00008067          	ret
    2870:	02e55833          	divu	a6,a0,a4
    2874:	03080813          	addi	a6,a6,48
    2878:	0ff87813          	zext.b	a6,a6
    287c:	0006a783          	lw	a5,0(a3) # 10000 <__global_pointer+0xcbaf>
    2880:	fec7eee3          	bltu	a5,a2,287c <print_dec+0x84>
    2884:	01032023          	sw	a6,0(t1)
    2888:	00100793          	li	a5,1
    288c:	fa9ff06f          	j	2834 <print_dec+0x3c>

00002890 <print_hex32>:
    2890:	04000737          	lui	a4,0x4000
    2894:	04470713          	addi	a4,a4,68 # 4000044 <_stack_end+0x3efd068>
    2898:	000106b7          	lui	a3,0x10
    289c:	00072783          	lw	a5,0(a4)
    28a0:	fed7eee3          	bltu	a5,a3,289c <print_hex32+0xc>
    28a4:	040007b7          	lui	a5,0x4000
    28a8:	03000693          	li	a3,48
    28ac:	04d7a023          	sw	a3,64(a5) # 4000040 <_stack_end+0x3efd064>
    28b0:	04478713          	addi	a4,a5,68
    28b4:	000106b7          	lui	a3,0x10
    28b8:	00072783          	lw	a5,0(a4)
    28bc:	fed7eee3          	bltu	a5,a3,28b8 <print_hex32+0x28>
    28c0:	04000837          	lui	a6,0x4000
    28c4:	04080813          	addi	a6,a6,64 # 4000040 <_stack_end+0x3efd064>
    28c8:	07800793          	li	a5,120
    28cc:	04000737          	lui	a4,0x4000
    28d0:	00f82023          	sw	a5,0(a6)
    28d4:	04470713          	addi	a4,a4,68 # 4000044 <_stack_end+0x3efd068>
    28d8:	01c00613          	li	a2,28
    28dc:	00900313          	li	t1,9
    28e0:	000106b7          	lui	a3,0x10
    28e4:	ffc00893          	li	a7,-4
    28e8:	00c557b3          	srl	a5,a0,a2
    28ec:	00f7f793          	andi	a5,a5,15
    28f0:	03778593          	addi	a1,a5,55
    28f4:	00f36463          	bltu	t1,a5,28fc <print_hex32+0x6c>
    28f8:	03078593          	addi	a1,a5,48
    28fc:	00072783          	lw	a5,0(a4)
    2900:	fed7eee3          	bltu	a5,a3,28fc <print_hex32+0x6c>
    2904:	00b82023          	sw	a1,0(a6)
    2908:	ffc60613          	addi	a2,a2,-4 # fffc <__global_pointer+0xcbab>
    290c:	fd161ee3          	bne	a2,a7,28e8 <print_hex32+0x58>
    2910:	00008067          	ret

00002914 <handle_exception>:
    2914:	00200793          	li	a5,2
    2918:	1af80463          	beq	a6,a5,2ac0 <handle_exception+0x1ac>
    291c:	00b00793          	li	a5,11
    2920:	12f80663          	beq	a6,a5,2a4c <handle_exception+0x138>
    2924:	14081c63          	bnez	a6,2a7c <handle_exception+0x168>
    2928:	00003637          	lui	a2,0x3
    292c:	000038b7          	lui	a7,0x3
    2930:	04000737          	lui	a4,0x4000
    2934:	04000837          	lui	a6,0x4000
    2938:	f5460613          	addi	a2,a2,-172 # 2f54 <pieces+0x154>
    293c:	f8388893          	addi	a7,a7,-125 # 2f83 <pieces+0x183>
    2940:	04470713          	addi	a4,a4,68 # 4000044 <_stack_end+0x3efd068>
    2944:	04080813          	addi	a6,a6,64 # 4000040 <_stack_end+0x3efd064>
    2948:	00a00593          	li	a1,10
    294c:	000106b7          	lui	a3,0x10
    2950:	00072783          	lw	a5,0(a4)
    2954:	fed7eee3          	bltu	a5,a3,2950 <handle_exception+0x3c>
    2958:	00b82023          	sw	a1,0(a6)
    295c:	00160613          	addi	a2,a2,1
    2960:	00064583          	lbu	a1,0(a2)
    2964:	ff1616e3          	bne	a2,a7,2950 <handle_exception+0x3c>
    2968:	00003637          	lui	a2,0x3
    296c:	000038b7          	lui	a7,0x3
    2970:	04000737          	lui	a4,0x4000
    2974:	04000837          	lui	a6,0x4000
    2978:	fc860613          	addi	a2,a2,-56 # 2fc8 <pieces+0x1c8>
    297c:	fdb88893          	addi	a7,a7,-37 # 2fdb <pieces+0x1db>
    2980:	04470713          	addi	a4,a4,68 # 4000044 <_stack_end+0x3efd068>
    2984:	04080813          	addi	a6,a6,64 # 4000040 <_stack_end+0x3efd064>
    2988:	04500593          	li	a1,69
    298c:	000106b7          	lui	a3,0x10
    2990:	00072783          	lw	a5,0(a4)
    2994:	fed7eee3          	bltu	a5,a3,2990 <handle_exception+0x7c>
    2998:	00b82023          	sw	a1,0(a6)
    299c:	00160613          	addi	a2,a2,1
    29a0:	00064583          	lbu	a1,0(a2)
    29a4:	ff1616e3          	bne	a2,a7,2990 <handle_exception+0x7c>
    29a8:	04000737          	lui	a4,0x4000
    29ac:	04470713          	addi	a4,a4,68 # 4000044 <_stack_end+0x3efd068>
    29b0:	000106b7          	lui	a3,0x10
    29b4:	00072783          	lw	a5,0(a4)
    29b8:	fed7eee3          	bltu	a5,a3,29b4 <handle_exception+0xa0>
    29bc:	040007b7          	lui	a5,0x4000
    29c0:	03000693          	li	a3,48
    29c4:	04d7a023          	sw	a3,64(a5) # 4000040 <_stack_end+0x3efd064>
    29c8:	04478713          	addi	a4,a5,68
    29cc:	000106b7          	lui	a3,0x10
    29d0:	00072783          	lw	a5,0(a4)
    29d4:	fed7eee3          	bltu	a5,a3,29d0 <handle_exception+0xbc>
    29d8:	04000837          	lui	a6,0x4000
    29dc:	04080813          	addi	a6,a6,64 # 4000040 <_stack_end+0x3efd064>
    29e0:	07800793          	li	a5,120
    29e4:	04000737          	lui	a4,0x4000
    29e8:	00f82023          	sw	a5,0(a6)
    29ec:	04470713          	addi	a4,a4,68 # 4000044 <_stack_end+0x3efd068>
    29f0:	01c00613          	li	a2,28
    29f4:	00900313          	li	t1,9
    29f8:	000106b7          	lui	a3,0x10
    29fc:	ffc00893          	li	a7,-4
    2a00:	00c557b3          	srl	a5,a0,a2
    2a04:	00f7f793          	andi	a5,a5,15
    2a08:	03778593          	addi	a1,a5,55
    2a0c:	00f36463          	bltu	t1,a5,2a14 <handle_exception+0x100>
    2a10:	03078593          	addi	a1,a5,48
    2a14:	00072783          	lw	a5,0(a4)
    2a18:	fed7eee3          	bltu	a5,a3,2a14 <handle_exception+0x100>
    2a1c:	00b82023          	sw	a1,0(a6)
    2a20:	ffc60613          	addi	a2,a2,-4
    2a24:	fd161ee3          	bne	a2,a7,2a00 <handle_exception+0xec>
    2a28:	04000737          	lui	a4,0x4000
    2a2c:	04470713          	addi	a4,a4,68 # 4000044 <_stack_end+0x3efd068>
    2a30:	000106b7          	lui	a3,0x10
    2a34:	00072783          	lw	a5,0(a4)
    2a38:	fed7eee3          	bltu	a5,a3,2a34 <handle_exception+0x120>
    2a3c:	040007b7          	lui	a5,0x4000
    2a40:	00a00713          	li	a4,10
    2a44:	04e7a023          	sw	a4,64(a5) # 4000040 <_stack_end+0x3efd064>
    2a48:	0000006f          	j	2a48 <handle_exception+0x134>
    2a4c:	00400793          	li	a5,4
    2a50:	0af88a63          	beq	a7,a5,2b04 <handle_exception+0x1f0>
    2a54:	0f089463          	bne	a7,a6,2b3c <handle_exception+0x228>
    2a58:	04000737          	lui	a4,0x4000
    2a5c:	04470713          	addi	a4,a4,68 # 4000044 <_stack_end+0x3efd068>
    2a60:	000106b7          	lui	a3,0x10
    2a64:	00072783          	lw	a5,0(a4)
    2a68:	fed7eee3          	bltu	a5,a3,2a64 <handle_exception+0x150>
    2a6c:	040007b7          	lui	a5,0x4000
    2a70:	0ff57513          	zext.b	a0,a0
    2a74:	04a7a023          	sw	a0,64(a5) # 4000040 <_stack_end+0x3efd064>
    2a78:	00008067          	ret
    2a7c:	00003637          	lui	a2,0x3
    2a80:	000038b7          	lui	a7,0x3
    2a84:	04000737          	lui	a4,0x4000
    2a88:	04000837          	lui	a6,0x4000
    2a8c:	fa860613          	addi	a2,a2,-88 # 2fa8 <pieces+0x1a8>
    2a90:	fc488893          	addi	a7,a7,-60 # 2fc4 <pieces+0x1c4>
    2a94:	04470713          	addi	a4,a4,68 # 4000044 <_stack_end+0x3efd068>
    2a98:	04080813          	addi	a6,a6,64 # 4000040 <_stack_end+0x3efd064>
    2a9c:	00a00593          	li	a1,10
    2aa0:	000106b7          	lui	a3,0x10
    2aa4:	00072783          	lw	a5,0(a4)
    2aa8:	fed7eee3          	bltu	a5,a3,2aa4 <handle_exception+0x190>
    2aac:	00b82023          	sw	a1,0(a6)
    2ab0:	00160613          	addi	a2,a2,1
    2ab4:	00064583          	lbu	a1,0(a2)
    2ab8:	ff1616e3          	bne	a2,a7,2aa4 <handle_exception+0x190>
    2abc:	eadff06f          	j	2968 <handle_exception+0x54>
    2ac0:	00003637          	lui	a2,0x3
    2ac4:	000038b7          	lui	a7,0x3
    2ac8:	04000737          	lui	a4,0x4000
    2acc:	04000837          	lui	a6,0x4000
    2ad0:	f8460613          	addi	a2,a2,-124 # 2f84 <pieces+0x184>
    2ad4:	fa688893          	addi	a7,a7,-90 # 2fa6 <pieces+0x1a6>
    2ad8:	04470713          	addi	a4,a4,68 # 4000044 <_stack_end+0x3efd068>
    2adc:	04080813          	addi	a6,a6,64 # 4000040 <_stack_end+0x3efd064>
    2ae0:	00a00593          	li	a1,10
    2ae4:	000106b7          	lui	a3,0x10
    2ae8:	00072783          	lw	a5,0(a4)
    2aec:	fed7eee3          	bltu	a5,a3,2ae8 <handle_exception+0x1d4>
    2af0:	00b82023          	sw	a1,0(a6)
    2af4:	00160613          	addi	a2,a2,1
    2af8:	00064583          	lbu	a1,0(a2)
    2afc:	ff1616e3          	bne	a2,a7,2ae8 <handle_exception+0x1d4>
    2b00:	e69ff06f          	j	2968 <handle_exception+0x54>
    2b04:	00054603          	lbu	a2,0(a0)
    2b08:	02060a63          	beqz	a2,2b3c <handle_exception+0x228>
    2b0c:	04000737          	lui	a4,0x4000
    2b10:	040005b7          	lui	a1,0x4000
    2b14:	04470713          	addi	a4,a4,68 # 4000044 <_stack_end+0x3efd068>
    2b18:	04058593          	addi	a1,a1,64 # 4000040 <_stack_end+0x3efd064>
    2b1c:	000106b7          	lui	a3,0x10
    2b20:	00072783          	lw	a5,0(a4)
    2b24:	fed7eee3          	bltu	a5,a3,2b20 <handle_exception+0x20c>
    2b28:	00c5a023          	sw	a2,0(a1)
    2b2c:	00154603          	lbu	a2,1(a0)
    2b30:	00150513          	addi	a0,a0,1
    2b34:	fe0616e3          	bnez	a2,2b20 <handle_exception+0x20c>
    2b38:	00008067          	ret
    2b3c:	00008067          	ret

00002b40 <nextprime>:
    2b40:	00200793          	li	a5,2
    2b44:	02a7c063          	blt	a5,a0,2b64 <nextprime+0x24>
    2b48:	00100693          	li	a3,1
    2b4c:	00a05863          	blez	a0,2b5c <nextprime+0x1c>
    2b50:	fff50793          	addi	a5,a0,-1
    2b54:	00f037b3          	snez	a5,a5
    2b58:	00278693          	addi	a3,a5,2
    2b5c:	00068513          	mv	a0,a3
    2b60:	00008067          	ret
    2b64:	00150513          	addi	a0,a0,1
    2b68:	00156693          	ori	a3,a0,1
    2b6c:	00300793          	li	a5,3
    2b70:	02f6e733          	rem	a4,a3,a5
    2b74:	4016d613          	srai	a2,a3,0x1
    2b78:	00260613          	addi	a2,a2,2
    2b7c:	00178793          	addi	a5,a5,1
    2b80:	00070a63          	beqz	a4,2b94 <nextprime+0x54>
    2b84:	fcf60ce3          	beq	a2,a5,2b5c <nextprime+0x1c>
    2b88:	02f6e733          	rem	a4,a3,a5
    2b8c:	00178793          	addi	a5,a5,1
    2b90:	fe071ae3          	bnez	a4,2b84 <nextprime+0x44>
    2b94:	00268693          	addi	a3,a3,2 # 10002 <__global_pointer+0xcbb1>
    2b98:	fd5ff06f          	j	2b6c <nextprime+0x2c>

Disassembly of section .data:

00002b9c <welcome_msg>:
    2b9c:	3d3d                	.insn	2, 0x3d3d
    2b9e:	3d3d                	.insn	2, 0x3d3d
    2ba0:	3d3d                	.insn	2, 0x3d3d
    2ba2:	3d3d                	.insn	2, 0x3d3d
    2ba4:	3d3d                	.insn	2, 0x3d3d
    2ba6:	3d3d                	.insn	2, 0x3d3d
    2ba8:	3d3d                	.insn	2, 0x3d3d
    2baa:	3d3d                	.insn	2, 0x3d3d
    2bac:	3d3d                	.insn	2, 0x3d3d
    2bae:	3d3d                	.insn	2, 0x3d3d
    2bb0:	3d3d                	.insn	2, 0x3d3d
    2bb2:	3d3d                	.insn	2, 0x3d3d
    2bb4:	3d3d                	.insn	2, 0x3d3d
    2bb6:	3d3d                	.insn	2, 0x3d3d
    2bb8:	3d3d                	.insn	2, 0x3d3d
    2bba:	3d3d                	.insn	2, 0x3d3d
    2bbc:	3d3d                	.insn	2, 0x3d3d
    2bbe:	3d3d                	.insn	2, 0x3d3d
    2bc0:	3d3d                	.insn	2, 0x3d3d
    2bc2:	3d3d                	.insn	2, 0x3d3d
    2bc4:	3d3d                	.insn	2, 0x3d3d
    2bc6:	3d3d                	.insn	2, 0x3d3d
    2bc8:	3d3d                	.insn	2, 0x3d3d
    2bca:	3d3d                	.insn	2, 0x3d3d
    2bcc:	3d0a                	.insn	2, 0x3d0a
    2bce:	3d3d                	.insn	2, 0x3d3d
    2bd0:	3d3d                	.insn	2, 0x3d3d
    2bd2:	5220                	.insn	2, 0x5220
    2bd4:	5349                	.insn	2, 0x5349
    2bd6:	20562d43          	.insn	4, 0x20562d43
    2bda:	6f42                	.insn	2, 0x6f42
    2bdc:	552d746f          	jal	s0,da12e <__global_pointer+0xd6cdd>
    2be0:	2070                	.insn	2, 0x2070
    2be2:	7250                	.insn	2, 0x7250
    2be4:	7365636f          	jal	t1,5931a <__global_pointer+0x55ec9>
    2be8:	6f4e2073          	csrs	0x6f4,t3
    2bec:	6f432077          	.insn	4, 0x6f432077
    2bf0:	706d                	.insn	2, 0x706d
    2bf2:	656c                	.insn	2, 0x656c
    2bf4:	6574                	.insn	2, 0x6574
    2bf6:	3d20                	.insn	2, 0x3d20
    2bf8:	3d3d                	.insn	2, 0x3d3d
    2bfa:	3d3d                	.insn	2, 0x3d3d
    2bfc:	0a3d                	.insn	2, 0x0a3d
    2bfe:	3d3d                	.insn	2, 0x3d3d
    2c00:	3d3d                	.insn	2, 0x3d3d
    2c02:	3d3d                	.insn	2, 0x3d3d
    2c04:	3d3d                	.insn	2, 0x3d3d
    2c06:	3d3d                	.insn	2, 0x3d3d
    2c08:	3d3d                	.insn	2, 0x3d3d
    2c0a:	3d3d                	.insn	2, 0x3d3d
    2c0c:	3d3d                	.insn	2, 0x3d3d
    2c0e:	3d3d                	.insn	2, 0x3d3d
    2c10:	3d3d                	.insn	2, 0x3d3d
    2c12:	3d3d                	.insn	2, 0x3d3d
    2c14:	3d3d                	.insn	2, 0x3d3d
    2c16:	3d3d                	.insn	2, 0x3d3d
    2c18:	3d3d                	.insn	2, 0x3d3d
    2c1a:	3d3d                	.insn	2, 0x3d3d
    2c1c:	3d3d                	.insn	2, 0x3d3d
    2c1e:	3d3d                	.insn	2, 0x3d3d
    2c20:	3d3d                	.insn	2, 0x3d3d
    2c22:	3d3d                	.insn	2, 0x3d3d
    2c24:	3d3d                	.insn	2, 0x3d3d
    2c26:	3d3d                	.insn	2, 0x3d3d
    2c28:	3d3d                	.insn	2, 0x3d3d
    2c2a:	3d3d                	.insn	2, 0x3d3d
    2c2c:	3d3d                	.insn	2, 0x3d3d
    2c2e:	000a                	.insn	2, 0x000a

00002c30 <mytime>:
    2c30:	00005957          	.insn	4, 0x5957

00002c34 <timstr>:
    2c34:	6574                	.insn	2, 0x6574
    2c36:	7478                	.insn	2, 0x7478
    2c38:	6d20                	.insn	2, 0x6d20
    2c3a:	2065726f          	jal	tp,59e40 <__global_pointer+0x569ef>
    2c3e:	6574                	.insn	2, 0x6574
    2c40:	7478                	.insn	2, 0x7478
    2c42:	6c20                	.insn	2, 0x6c20
    2c44:	2073746f          	jal	s0,3a64a <__global_pointer+0x371f9>
    2c48:	7420666f          	jal	a2,938a <__global_pointer+0x5f39>
    2c4c:	7865                	.insn	2, 0x7865
    2c4e:	0074                	.insn	2, 0x0074
    2c50:	0000                	.insn	2, 0x0000
	...

00002c54 <softdrop_multiplier>:
    2c54:	0008                	.insn	2, 0x0008
	...

00002c58 <basetick>:
    2c58:	0030                	.insn	2, 0x0030
	...

00002c5c <control>:
    2c5c:	0024                	.insn	2, 0x0024
    2c5e:	0400                	.insn	2, 0x0400

00002c60 <status>:
    2c60:	0020                	.insn	2, 0x0020
    2c62:	0400                	.insn	2, 0x0400

00002c64 <periodh>:
    2c64:	002c                	.insn	2, 0x002c
    2c66:	0400                	.insn	2, 0x0400

00002c68 <periodl>:
    2c68:	0028                	.insn	2, 0x0028
    2c6a:	0400                	.insn	2, 0x0400

00002c6c <back_buffer>:
    2c6c:	2c00                	.insn	2, 0x2c00
    2c6e:	0801                	.insn	2, 0x0801

00002c70 <front_buffer>:
    2c70:	0000                	.insn	2, 0x0000
    2c72:	0800                	.insn	2, 0x0800

00002c74 <button>:
    2c74:	00e0                	.insn	2, 0x00e0
    2c76:	0400                	.insn	2, 0x0400

Disassembly of section .rodata:

00002d94 <font_digits>:
    2d94:	110e                	.insn	2, 0x110e
    2d96:	11191513          	.insn	4, 0x11191513
    2d9a:	040e                	.insn	2, 0x040e
    2d9c:	140c                	.insn	2, 0x140c
    2d9e:	0404                	.insn	2, 0x0404
    2da0:	1f04                	.insn	2, 0x1f04
    2da2:	110e                	.insn	2, 0x110e
    2da4:	0402                	.insn	2, 0x0402
    2da6:	1008                	.insn	2, 0x1008
    2da8:	0e1f 0111 0106      	.insn	6, 0x010601110e1f
    2dae:	0e11                	.insn	2, 0x0e11
    2db0:	0602                	.insn	2, 0x0602
    2db2:	120a                	.insn	2, 0x120a
    2db4:	021f 1f02 1010      	.insn	6, 0x10101f02021f
    2dba:	0f01                	.insn	2, 0x0f01
    2dbc:	0e11                	.insn	2, 0x0e11
    2dbe:	110e                	.insn	2, 0x110e
    2dc0:	1e10                	.insn	2, 0x1e10
    2dc2:	1111                	.insn	2, 0x1111
    2dc4:	1f0e                	.insn	2, 0x1f0e
    2dc6:	0201                	.insn	2, 0x0201
    2dc8:	0804                	.insn	2, 0x0804
    2dca:	0808                	.insn	2, 0x0808
    2dcc:	110e                	.insn	2, 0x110e
    2dce:	0e11                	.insn	2, 0x0e11
    2dd0:	1111                	.insn	2, 0x1111
    2dd2:	0e0e                	.insn	2, 0x0e0e
    2dd4:	1111                	.insn	2, 0x1111
    2dd6:	0e11010f          	.insn	4, 0x0e11010f
	...

00002ddc <font_letters>:
    2ddc:	110e                	.insn	2, 0x110e
    2dde:	0e10                	.insn	2, 0x0e10
    2de0:	1101                	.insn	2, 0x1101
    2de2:	0e0e                	.insn	2, 0x0e0e
    2de4:	1011                	.insn	2, 0x1011
    2de6:	1110                	.insn	2, 0x1110
    2de8:	0e11                	.insn	2, 0x0e11
    2dea:	110e                	.insn	2, 0x110e
    2dec:	1111                	.insn	2, 0x1111
    2dee:	1111                	.insn	2, 0x1111
    2df0:	1e0e                	.insn	2, 0x1e0e
    2df2:	1111                	.insn	2, 0x1111
    2df4:	111e                	.insn	2, 0x111e
    2df6:	1111                	.insn	2, 0x1111
    2df8:	101f 1e10 1010      	.insn	6, 0x10101e10101f
    2dfe:	001f        	.insn	6, 0x0002001f

00002e00 <pieces>:
    2e00:	0002                	.insn	2, 0x0002
    2e02:	0000                	.insn	2, 0x0000
    2e04:	0101                	.insn	2, 0x0101
    2e06:	0000                	.insn	2, 0x0000
    2e08:	0101                	.insn	2, 0x0101
	...
    2e12:	0000                	.insn	2, 0x0000
    2e14:	00fc                	.insn	2, 0x00fc
    2e16:	0000                	.insn	2, 0x0000
    2e18:	00d8                	.insn	2, 0x00d8
    2e1a:	0000                	.insn	2, 0x0000
    2e1c:	00000003          	lb	zero,0(zero) # 0 <_isr_handler>
    2e20:	0100                	.insn	2, 0x0100
    2e22:	0000                	.insn	2, 0x0000
    2e24:	0101                	.insn	2, 0x0101
    2e26:	0001                	.insn	2, 0x0001
	...
    2e30:	000000e3          	beqz	zero,3630 <__global_pointer+0x1df>
    2e34:	00c2                	.insn	2, 0x00c2
    2e36:	0000                	.insn	2, 0x0000
    2e38:	00000003          	lb	zero,0(zero) # 0 <_isr_handler>
    2e3c:	0101                	.insn	2, 0x0101
    2e3e:	0000                	.insn	2, 0x0000
    2e40:	0100                	.insn	2, 0x0100
    2e42:	0001                	.insn	2, 0x0001
	...
    2e4c:	001c                	.insn	2, 0x001c
    2e4e:	0000                	.insn	2, 0x0000
    2e50:	0018                	.insn	2, 0x0018
    2e52:	0000                	.insn	2, 0x0000
    2e54:	00000003          	lb	zero,0(zero) # 0 <_isr_handler>
    2e58:	0100                	.insn	2, 0x0100
    2e5a:	0001                	.insn	2, 0x0001
    2e5c:	0101                	.insn	2, 0x0101
	...
    2e66:	0000                	.insn	2, 0x0000
    2e68:	00e0                	.insn	2, 0x00e0
    2e6a:	0000                	.insn	2, 0x0000
    2e6c:	006e                	.insn	2, 0x006e
    2e6e:	0000                	.insn	2, 0x0000
    2e70:	00000003          	lb	zero,0(zero) # 0 <_isr_handler>
    2e74:	0001                	.insn	2, 0x0001
    2e76:	0000                	.insn	2, 0x0000
    2e78:	0101                	.insn	2, 0x0101
    2e7a:	0001                	.insn	2, 0x0001
	...
    2e84:	00000003          	lb	zero,0(zero) # 0 <_isr_handler>
    2e88:	0002                	.insn	2, 0x0002
    2e8a:	0000                	.insn	2, 0x0000
    2e8c:	00000003          	lb	zero,0(zero) # 0 <_isr_handler>
    2e90:	0000                	.insn	2, 0x0000
    2e92:	0001                	.insn	2, 0x0001
    2e94:	0101                	.insn	2, 0x0101
    2e96:	0001                	.insn	2, 0x0001
	...
    2ea0:	00e8                	.insn	2, 0x00e8
    2ea2:	0000                	.insn	2, 0x0000
    2ea4:	00d0                	.insn	2, 0x00d0
    2ea6:	0000                	.insn	2, 0x0000
    2ea8:	0004                	.insn	2, 0x0004
    2eaa:	0000                	.insn	2, 0x0000
    2eac:	0101                	.insn	2, 0x0101
    2eae:	0101                	.insn	2, 0x0101
	...
    2ebc:	001f 0000 001a      	.insn	6, 0x001a0000001f
	...

Disassembly of section .rodata.str1.4:

00002ec4 <.rodata.str1.4>:
    2ec4:	7250                	.insn	2, 0x7250
    2ec6:	7365                	.insn	2, 0x7365
    2ec8:	6e612073          	csrs	0x6e6,sp
    2ecc:	2079                	.insn	2, 0x2079
    2ece:	7562                	.insn	2, 0x7562
    2ed0:	7474                	.insn	2, 0x7474
    2ed2:	74206e6f          	jal	t3,9614 <__global_pointer+0x61c3>
    2ed6:	7473206f          	j	35e1c <__global_pointer+0x329cb>
    2eda:	7261                	.insn	2, 0x7261
    2edc:	2074                	.insn	2, 0x2074
    2ede:	6f66                	.insn	2, 0x6f66
    2ee0:	2072                	.insn	2, 0x2072
    2ee2:	6172                	.insn	2, 0x6172
    2ee4:	646e                	.insn	2, 0x646e
    2ee6:	73206d6f          	jal	s10,9618 <__global_pointer+0x61c7>
    2eea:	6565                	.insn	2, 0x6565
    2eec:	2e64                	.insn	2, 0x2e64
    2eee:	2e2e                	.insn	2, 0x2e2e
    2ef0:	000a                	.insn	2, 0x000a
    2ef2:	0000                	.insn	2, 0x0000
    2ef4:	64656553          	.insn	4, 0x64656553
    2ef8:	6465                	.insn	2, 0x6465
    2efa:	7720                	.insn	2, 0x7720
    2efc:	7469                	.insn	2, 0x7469
    2efe:	3a68                	.insn	2, 0x3a68
    2f00:	0020                	.insn	2, 0x0020
    2f02:	0000                	.insn	2, 0x0000
    2f04:	000a                	.insn	2, 0x000a
    2f06:	0000                	.insn	2, 0x0000
    2f08:	470a                	.insn	2, 0x470a
    2f0a:	4d41                	.insn	2, 0x4d41
    2f0c:	2045                	.insn	2, 0x2045
    2f0e:	5245564f          	.insn	4, 0x5245564f
    2f12:	0a21                	.insn	2, 0x0a21
    2f14:	0000                	.insn	2, 0x0000
    2f16:	0000                	.insn	2, 0x0000
    2f18:	7250                	.insn	2, 0x7250
    2f1a:	7365                	.insn	2, 0x7365
    2f1c:	75422073          	csrs	0x754,tp
    2f20:	7474                	.insn	2, 0x7474
    2f22:	30206e6f          	jal	t3,9224 <__global_pointer+0x5dd3>
    2f26:	7420                	.insn	2, 0x7420
    2f28:	6552206f          	j	25d7c <__global_pointer+0x2292b>
    2f2c:	72617473          	csrrci	s0,mhpmevent6h,2
    2f30:	0a74                	.insn	2, 0x0a74
    2f32:	0000                	.insn	2, 0x0000
    2f34:	4a325b1b          	.insn	4, 0x4a325b1b
    2f38:	0000                	.insn	2, 0x0000
    2f3a:	0000                	.insn	2, 0x0000
    2f3c:	00485b1b          	.insn	4, 0x00485b1b
    2f40:	656d6147          	.insn	4, 0x656d6147
    2f44:	7320                	.insn	2, 0x7320
    2f46:	6174                	.insn	2, 0x6174
    2f48:	7472                	.insn	2, 0x7472
    2f4a:	6e69                	.insn	2, 0x6e69
    2f4c:	2e2e2e67          	.insn	4, 0x2e2e2e67
    2f50:	000a                	.insn	2, 0x000a
    2f52:	0000                	.insn	2, 0x0000
    2f54:	5b0a                	.insn	2, 0x5b0a
    2f56:	5845                	.insn	2, 0x5845
    2f58:	54504543          	.insn	4, 0x54504543
    2f5c:	4f49                	.insn	2, 0x4f49
    2f5e:	5d4e                	.insn	2, 0x5d4e
    2f60:	4920                	.insn	2, 0x4920
    2f62:	736e                	.insn	2, 0x736e
    2f64:	7274                	.insn	2, 0x7274
    2f66:	6375                	.insn	2, 0x6375
    2f68:	6974                	.insn	2, 0x6974
    2f6a:	61206e6f          	jal	t3,957c <__global_pointer+0x612b>
    2f6e:	6464                	.insn	2, 0x6464
    2f70:	6572                	.insn	2, 0x6572
    2f72:	6d207373          	csrrci	t1,0x6d2,0
    2f76:	7369                	.insn	2, 0x7369
    2f78:	6c61                	.insn	2, 0x6c61
    2f7a:	6769                	.insn	2, 0x6769
    2f7c:	6d6e                	.insn	2, 0x6d6e
    2f7e:	6e65                	.insn	2, 0x6e65
    2f80:	2e74                	.insn	2, 0x2e74
    2f82:	0020                	.insn	2, 0x0020
    2f84:	5b0a                	.insn	2, 0x5b0a
    2f86:	5845                	.insn	2, 0x5845
    2f88:	54504543          	.insn	4, 0x54504543
    2f8c:	4f49                	.insn	2, 0x4f49
    2f8e:	5d4e                	.insn	2, 0x5d4e
    2f90:	4920                	.insn	2, 0x4920
    2f92:	6c6c                	.insn	2, 0x6c6c
    2f94:	6765                	.insn	2, 0x6765
    2f96:	6c61                	.insn	2, 0x6c61
    2f98:	6920                	.insn	2, 0x6920
    2f9a:	736e                	.insn	2, 0x736e
    2f9c:	7274                	.insn	2, 0x7274
    2f9e:	6375                	.insn	2, 0x6375
    2fa0:	6974                	.insn	2, 0x6974
    2fa2:	202e6e6f          	jal	t3,e91a4 <__global_pointer+0xe5d53>
    2fa6:	0000                	.insn	2, 0x0000
    2fa8:	5b0a                	.insn	2, 0x5b0a
    2faa:	5845                	.insn	2, 0x5845
    2fac:	54504543          	.insn	4, 0x54504543
    2fb0:	4f49                	.insn	2, 0x4f49
    2fb2:	5d4e                	.insn	2, 0x5d4e
    2fb4:	5520                	.insn	2, 0x5520
    2fb6:	6b6e                	.insn	2, 0x6b6e
    2fb8:	6f6e                	.insn	2, 0x6f6e
    2fba:	65206e77          	.insn	4, 0x65206e77
    2fbe:	7272                	.insn	2, 0x7272
    2fc0:	202e726f          	jal	tp,ea1c2 <__global_pointer+0xe6d71>
    2fc4:	0000                	.insn	2, 0x0000
    2fc6:	0000                	.insn	2, 0x0000
    2fc8:	7845                	.insn	2, 0x7845
    2fca:	74706563          	bltu	zero,t2,3714 <__global_pointer+0x2c3>
    2fce:	6f69                	.insn	2, 0x6f69
    2fd0:	206e                	.insn	2, 0x206e
    2fd2:	6441                	.insn	2, 0x6441
    2fd4:	7264                	.insn	2, 0x7264
    2fd6:	7365                	.insn	2, 0x7365
    2fd8:	00203a73          	csrrc	s4,frm,zero

Disassembly of section .comment:

00000000 <.comment>:
   0:	3a434347          	.insn	4, 0x3a434347
   4:	2820                	.insn	2, 0x2820
   6:	33623167          	.insn	4, 0x33623167
   a:	3630                	.insn	2, 0x3630
   c:	3330                	.insn	2, 0x3330
   e:	6139                	.insn	2, 0x6139
  10:	2029                	.insn	2, 0x2029
  12:	3531                	.insn	2, 0x3531
  14:	312e                	.insn	2, 0x312e
  16:	302e                	.insn	2, 0x302e
	...

Disassembly of section .riscv.attributes:

00000000 <.riscv.attributes>:
   0:	3641                	.insn	2, 0x3641
   2:	0000                	.insn	2, 0x0000
   4:	7200                	.insn	2, 0x7200
   6:	7369                	.insn	2, 0x7369
   8:	01007663          	bgeu	zero,a6,14 <_isr_routine+0xc>
   c:	002c                	.insn	2, 0x002c
   e:	0000                	.insn	2, 0x0000
  10:	1004                	.insn	2, 0x1004
  12:	7205                	.insn	2, 0x7205
  14:	3376                	.insn	2, 0x3376
  16:	6932                	.insn	2, 0x6932
  18:	7032                	.insn	2, 0x7032
  1a:	5f31                	.insn	2, 0x5f31
  1c:	326d                	.insn	2, 0x326d
  1e:	3070                	.insn	2, 0x3070
  20:	7a5f 6369 7273      	.insn	6, 0x727363697a5f
  26:	7032                	.insn	2, 0x7032
  28:	5f30                	.insn	2, 0x5f30
  2a:	6d7a                	.insn	2, 0x6d7a
  2c:	756d                	.insn	2, 0x756d
  2e:	316c                	.insn	2, 0x316c
  30:	3070                	.insn	2, 0x3070
  32:	0800                	.insn	2, 0x0800
  34:	0a01                	.insn	2, 0x0a01
  36:	0b                	.byte	0x0b
